; Listing generated by Microsoft (R) Optimizing Compiler Version 19.14.26431.0 

	TITLE	D:\IA jeux vidéo\Projets\UQAC_IA_JV_MiniProjet\Common\fuzzy\FuzzyVariable.cpp
	.686P
	.XMM
	include listing.inc
	.model	flat

INCLUDELIB LIBCMTD
INCLUDELIB OLDNAMES

CONST	SEGMENT
?piecewise_construct@std@@3Upiecewise_construct_t@1@B	ORG $+1 ; std::piecewise_construct
	ORG $+3
$SG46950 DB	'<FuzzyVariable::Fuzzify>: value out of range', 00H
	ORG $+3
$SG47404 DB	0aH, 00H
	ORG $+2
$SG46951 DB	'd', 00H, ':', 00H, '\', 00H, 'i', 00H, 'a', 00H, ' ', 00H
	DB	'j', 00H, 'e', 00H, 'u', 00H, 'x', 00H, ' ', 00H, 'v', 00H, 'i'
	DB	00H, 'd', 00H, 0e9H, 00H, 'o', 00H, '\', 00H, 'p', 00H, 'r', 00H
	DB	'o', 00H, 'j', 00H, 'e', 00H, 't', 00H, 's', 00H, '\', 00H, 'u'
	DB	00H, 'q', 00H, 'a', 00H, 'c', 00H, '_', 00H, 'i', 00H, 'a', 00H
	DB	'_', 00H, 'j', 00H, 'v', 00H, '_', 00H, 'm', 00H, 'i', 00H, 'n'
	DB	00H, 'i', 00H, 'p', 00H, 'r', 00H, 'o', 00H, 'j', 00H, 'e', 00H
	DB	't', 00H, '\', 00H, 'c', 00H, 'o', 00H, 'm', 00H, 'm', 00H, 'o'
	DB	00H, 'n', 00H, '\', 00H, 'f', 00H, 'u', 00H, 'z', 00H, 'z', 00H
	DB	'y', 00H, '\', 00H, 'f', 00H, 'u', 00H, 'z', 00H, 'z', 00H, 'y'
	DB	00H, 'v', 00H, 'a', 00H, 'r', 00H, 'i', 00H, 'a', 00H, 'b', 00H
	DB	'l', 00H, 'e', 00H, '.', 00H, 'c', 00H, 'p', 00H, 'p', 00H, 00H
	DB	00H
	ORG $+4
$SG46952 DB	'(', 00H, 'v', 00H, 'a', 00H, 'l', 00H, ' ', 00H, '>', 00H
	DB	'=', 00H, ' ', 00H, 'm', 00H, '_', 00H, 'd', 00H, 'M', 00H, 'i'
	DB	00H, 'n', 00H, 'R', 00H, 'a', 00H, 'n', 00H, 'g', 00H, 'e', 00H
	DB	')', 00H, ' ', 00H, '&', 00H, '&', 00H, ' ', 00H, '(', 00H, 'v'
	DB	00H, 'a', 00H, 'l', 00H, ' ', 00H, '<', 00H, '=', 00H, ' ', 00H
	DB	'm', 00H, '_', 00H, 'd', 00H, 'M', 00H, 'a', 00H, 'x', 00H, 'R'
	DB	00H, 'a', 00H, 'n', 00H, 'g', 00H, 'e', 00H, ')', 00H, ' ', 00H
	DB	'&', 00H, '&', 00H, ' ', 00H, '"', 00H, '<', 00H, 'F', 00H, 'u'
	DB	00H, 'z', 00H, 'z', 00H, 'y', 00H, 'V', 00H, 'a', 00H, 'r', 00H
	DB	'i', 00H, 'a', 00H, 'b', 00H, 'l', 00H, 'e', 00H, ':', 00H, ':'
	DB	00H, 'F', 00H, 'u', 00H, 'z', 00H, 'z', 00H, 'i', 00H, 'f', 00H
	DB	'y', 00H, '>', 00H, ':', 00H, ' ', 00H, 'v', 00H, 'a', 00H, 'l'
	DB	00H, 'u', 00H, 'e', 00H, ' ', 00H, 'o', 00H, 'u', 00H, 't', 00H
	DB	' ', 00H, 'o', 00H, 'f', 00H, ' ', 00H, 'r', 00H, 'a', 00H, 'n'
	DB	00H, 'g', 00H, 'e', 00H, '"', 00H, 00H, 00H
	ORG $+2
$SG47403 DB	' is ', 00H
	ORG $+3
$SG47405 DB	0aH, 'Max Range: ', 00H
	ORG $+3
$SG47406 DB	0aH, 'Min Range: ', 00H
CONST	ENDS
PUBLIC	?__empty_global_delete@@YAXPAX@Z		; __empty_global_delete
PUBLIC	?__empty_global_delete@@YAXPAXI@Z		; __empty_global_delete
PUBLIC	_fabsl
PUBLIC	_frexpl
PUBLIC	??0exception@std@@QAE@QBD@Z			; std::exception::exception
PUBLIC	??0exception@std@@QAE@QBDH@Z			; std::exception::exception
PUBLIC	??0exception@std@@QAE@ABV01@@Z			; std::exception::exception
PUBLIC	??1exception@std@@UAE@XZ			; std::exception::~exception
PUBLIC	?what@exception@std@@UBEPBDXZ			; std::exception::what
PUBLIC	??_Gexception@std@@UAEPAXI@Z			; std::exception::`scalar deleting destructor'
PUBLIC	??2@YAPAXIPAX@Z					; operator new
PUBLIC	___local_stdio_printf_options
PUBLIC	__vsprintf_s_l
PUBLIC	_sprintf_s
PUBLIC	?compare@?$char_traits@D@std@@SAHQBD0I@Z	; std::char_traits<char>::compare
PUBLIC	?length@?$char_traits@D@std@@SAIQBD@Z		; std::char_traits<char>::length
PUBLIC	?copy@?$char_traits@D@std@@SAPADQADQBDI@Z	; std::char_traits<char>::copy
PUBLIC	?move@?$char_traits@D@std@@SAPADQADQBDI@Z	; std::char_traits<char>::move
PUBLIC	?assign@?$char_traits@D@std@@SAPADQADID@Z	; std::char_traits<char>::assign
PUBLIC	?assign@?$char_traits@D@std@@SAXAADABD@Z	; std::char_traits<char>::assign
PUBLIC	?to_int_type@?$char_traits@D@std@@SAHABD@Z	; std::char_traits<char>::to_int_type
PUBLIC	?eq_int_type@?$char_traits@D@std@@SA_NABH0@Z	; std::char_traits<char>::eq_int_type
PUBLIC	?eof@?$char_traits@D@std@@SAHXZ			; std::char_traits<char>::eof
PUBLIC	??0_Container_proxy@std@@QAE@XZ			; std::_Container_proxy::_Container_proxy
PUBLIC	??0_Container_base12@std@@QAE@XZ		; std::_Container_base12::_Container_base12
PUBLIC	?_Getpfirst@_Container_base12@std@@QBEPAPAU_Iterator_base12@2@XZ ; std::_Container_base12::_Getpfirst
PUBLIC	?_Orphan_all@_Container_base12@std@@QAEXXZ	; std::_Container_base12::_Orphan_all
PUBLIC	?_Swap_all@_Container_base12@std@@QAEXAAU12@@Z	; std::_Container_base12::_Swap_all
PUBLIC	??0_Iterator_base12@std@@QAE@XZ			; std::_Iterator_base12::_Iterator_base12
PUBLIC	??0_Iterator_base12@std@@QAE@ABU01@@Z		; std::_Iterator_base12::_Iterator_base12
PUBLIC	??4_Iterator_base12@std@@QAEAAU01@ABU01@@Z	; std::_Iterator_base12::operator=
PUBLIC	??1_Iterator_base12@std@@QAE@XZ			; std::_Iterator_base12::~_Iterator_base12
PUBLIC	?_Adopt@_Iterator_base12@std@@QAEXPBU_Container_base12@2@@Z ; std::_Iterator_base12::_Adopt
PUBLIC	?_Clrcont@_Iterator_base12@std@@QAEXXZ		; std::_Iterator_base12::_Clrcont
PUBLIC	?_Getcont@_Iterator_base12@std@@QBEPBU_Container_base12@2@XZ ; std::_Iterator_base12::_Getcont
PUBLIC	?_Getpnext@_Iterator_base12@std@@QAEPAPAU12@XZ	; std::_Iterator_base12::_Getpnext
PUBLIC	?_Orphan_me@_Iterator_base12@std@@QAEXXZ	; std::_Iterator_base12::_Orphan_me
PUBLIC	??0?$tuple@$$V@std@@QAE@XZ			; std::tuple<>::tuple<>
PUBLIC	??0?$tuple@$$V@std@@QAE@ABV01@@Z		; std::tuple<>::tuple<>
PUBLIC	?max@?$numeric_limits@H@std@@SAHXZ		; std::numeric_limits<int>::max
PUBLIC	?min@?$numeric_limits@M@std@@SAMXZ		; std::numeric_limits<float>::min
PUBLIC	?max@?$numeric_limits@M@std@@SAMXZ		; std::numeric_limits<float>::max
PUBLIC	?min@?$numeric_limits@N@std@@SANXZ		; std::numeric_limits<double>::min
PUBLIC	?max@?$numeric_limits@N@std@@SANXZ		; std::numeric_limits<double>::max
PUBLIC	??$_Get_size_of_n@$00@std@@YAII@Z		; std::_Get_size_of_n<1>
PUBLIC	?_Allocate@_Default_allocate_traits@std@@SAPAXI@Z ; std::_Default_allocate_traits::_Allocate
PUBLIC	?_Adjust_manually_vector_aligned@std@@YAXAAPAXAAI@Z ; std::_Adjust_manually_vector_aligned
PUBLIC	??$_Convert_size@I@std@@YAII@Z			; std::_Convert_size<unsigned int>
PUBLIC	??0?$allocator@D@std@@QAE@XZ			; std::allocator<char>::allocator<char>
PUBLIC	?deallocate@?$allocator@D@std@@QAEXQADI@Z	; std::allocator<char>::deallocate
PUBLIC	?allocate@?$allocator@D@std@@QAEPADI@Z		; std::allocator<char>::allocate
PUBLIC	?max_size@?$_Default_allocator_traits@V?$allocator@D@std@@@std@@SAIABV?$allocator@D@2@@Z ; std::_Default_allocator_traits<std::allocator<char> >::max_size
PUBLIC	?select_on_container_copy_construction@?$_Default_allocator_traits@V?$allocator@D@std@@@std@@SA?AV?$allocator@D@2@ABV32@@Z ; std::_Default_allocator_traits<std::allocator<char> >::select_on_container_copy_construction
PUBLIC	??0?$_String_val@U?$_Simple_types@D@std@@@std@@QAE@XZ ; std::_String_val<std::_Simple_types<char> >::_String_val<std::_Simple_types<char> >
PUBLIC	?_Myptr@?$_String_val@U?$_Simple_types@D@std@@@std@@QAEPADXZ ; std::_String_val<std::_Simple_types<char> >::_Myptr
PUBLIC	?_Myptr@?$_String_val@U?$_Simple_types@D@std@@@std@@QBEPBDXZ ; std::_String_val<std::_Simple_types<char> >::_Myptr
PUBLIC	?_Large_string_engaged@?$_String_val@U?$_Simple_types@D@std@@@std@@QBE_NXZ ; std::_String_val<std::_Simple_types<char> >::_Large_string_engaged
PUBLIC	?_Check_offset@?$_String_val@U?$_Simple_types@D@std@@@std@@QBEXI@Z ; std::_String_val<std::_Simple_types<char> >::_Check_offset
PUBLIC	?_Xran@?$_String_val@U?$_Simple_types@D@std@@@std@@SAXXZ ; std::_String_val<std::_Simple_types<char> >::_Xran
PUBLIC	??0_Bxty@?$_String_val@U?$_Simple_types@D@std@@@std@@QAE@XZ ; std::_String_val<std::_Simple_types<char> >::_Bxty::_Bxty
PUBLIC	??1_Bxty@?$_String_val@U?$_Simple_types@D@std@@@std@@QAE@XZ ; std::_String_val<std::_Simple_types<char> >::_Bxty::~_Bxty
PUBLIC	??1?$_String_val@U?$_Simple_types@D@std@@@std@@QAE@XZ ; std::_String_val<std::_Simple_types<char> >::~_String_val<std::_Simple_types<char> >
PUBLIC	??0?$_String_alloc@U?$_String_base_types@DV?$allocator@D@std@@@std@@@std@@QAE@XZ ; std::_String_alloc<std::_String_base_types<char,std::allocator<char> > >::_String_alloc<std::_String_base_types<char,std::allocator<char> > >
PUBLIC	??1?$_String_alloc@U?$_String_base_types@DV?$allocator@D@std@@@std@@@std@@QAE@XZ ; std::_String_alloc<std::_String_base_types<char,std::allocator<char> > >::~_String_alloc<std::_String_base_types<char,std::allocator<char> > >
PUBLIC	?_Move_alloc@?$_String_alloc@U?$_String_base_types@DV?$allocator@D@std@@@std@@@std@@QAEXAAV?$allocator@D@2@@Z ; std::_String_alloc<std::_String_base_types<char,std::allocator<char> > >::_Move_alloc
PUBLIC	?_Alloc_proxy@?$_String_alloc@U?$_String_base_types@DV?$allocator@D@std@@@std@@@std@@QAEXXZ ; std::_String_alloc<std::_String_base_types<char,std::allocator<char> > >::_Alloc_proxy
PUBLIC	?_Free_proxy@?$_String_alloc@U?$_String_base_types@DV?$allocator@D@std@@@std@@@std@@QAEXXZ ; std::_String_alloc<std::_String_base_types<char,std::allocator<char> > >::_Free_proxy
PUBLIC	?_Myproxy@?$_String_alloc@U?$_String_base_types@DV?$allocator@D@std@@@std@@@std@@QAEAAPAU_Container_proxy@2@XZ ; std::_String_alloc<std::_String_base_types<char,std::allocator<char> > >::_Myproxy
PUBLIC	?_Orphan_all@?$_String_alloc@U?$_String_base_types@DV?$allocator@D@std@@@std@@@std@@QAEXXZ ; std::_String_alloc<std::_String_base_types<char,std::allocator<char> > >::_Orphan_all
PUBLIC	?_Swap_all@?$_String_alloc@U?$_String_base_types@DV?$allocator@D@std@@@std@@@std@@QAEXAAV12@@Z ; std::_String_alloc<std::_String_base_types<char,std::allocator<char> > >::_Swap_all
PUBLIC	?_Getal@?$_String_alloc@U?$_String_base_types@DV?$allocator@D@std@@@std@@@std@@QAEAAV?$allocator@D@2@XZ ; std::_String_alloc<std::_String_base_types<char,std::allocator<char> > >::_Getal
PUBLIC	?_Getal@?$_String_alloc@U?$_String_base_types@DV?$allocator@D@std@@@std@@@std@@QBEABV?$allocator@D@2@XZ ; std::_String_alloc<std::_String_base_types<char,std::allocator<char> > >::_Getal
PUBLIC	?_Get_data@?$_String_alloc@U?$_String_base_types@DV?$allocator@D@std@@@std@@@std@@QAEAAV?$_String_val@U?$_Simple_types@D@std@@@2@XZ ; std::_String_alloc<std::_String_base_types<char,std::allocator<char> > >::_Get_data
PUBLIC	?_Get_data@?$_String_alloc@U?$_String_base_types@DV?$allocator@D@std@@@std@@@std@@QBEABV?$_String_val@U?$_Simple_types@D@std@@@2@XZ ; std::_String_alloc<std::_String_base_types<char,std::allocator<char> > >::_Get_data
PUBLIC	?_Get_first@?$_Compressed_pair@V?$allocator@D@std@@V?$_String_val@U?$_Simple_types@D@std@@@2@$00@std@@QAEAAV?$allocator@D@2@XZ ; std::_Compressed_pair<std::allocator<char>,std::_String_val<std::_Simple_types<char> >,1>::_Get_first
PUBLIC	?_Get_first@?$_Compressed_pair@V?$allocator@D@std@@V?$_String_val@U?$_Simple_types@D@std@@@2@$00@std@@QBEABV?$allocator@D@2@XZ ; std::_Compressed_pair<std::allocator<char>,std::_String_val<std::_Simple_types<char> >,1>::_Get_first
PUBLIC	?_Get_second@?$_Compressed_pair@V?$allocator@D@std@@V?$_String_val@U?$_Simple_types@D@std@@@2@$00@std@@QAEAAV?$_String_val@U?$_Simple_types@D@std@@@2@XZ ; std::_Compressed_pair<std::allocator<char>,std::_String_val<std::_Simple_types<char> >,1>::_Get_second
PUBLIC	?_Get_second@?$_Compressed_pair@V?$allocator@D@std@@V?$_String_val@U?$_Simple_types@D@std@@@2@$00@std@@QBEABV?$_String_val@U?$_Simple_types@D@std@@@2@XZ ; std::_Compressed_pair<std::allocator<char>,std::_String_val<std::_Simple_types<char> >,1>::_Get_second
PUBLIC	??1?$_Compressed_pair@V?$allocator@D@std@@V?$_String_val@U?$_Simple_types@D@std@@@2@$00@std@@QAE@XZ ; std::_Compressed_pair<std::allocator<char>,std::_String_val<std::_Simple_types<char> >,1>::~_Compressed_pair<std::allocator<char>,std::_String_val<std::_Simple_types<char> >,1>
PUBLIC	??0?$basic_string@DU?$char_traits@D@std@@V?$allocator@D@2@@std@@QAE@ABV01@@Z ; std::basic_string<char,std::char_traits<char>,std::allocator<char> >::basic_string<char,std::char_traits<char>,std::allocator<char> >
PUBLIC	??0?$basic_string@DU?$char_traits@D@std@@V?$allocator@D@2@@std@@QAE@XZ ; std::basic_string<char,std::char_traits<char>,std::allocator<char> >::basic_string<char,std::char_traits<char>,std::allocator<char> >
PUBLIC	??0?$basic_string@DU?$char_traits@D@std@@V?$allocator@D@2@@std@@QAE@QBD@Z ; std::basic_string<char,std::char_traits<char>,std::allocator<char> >::basic_string<char,std::char_traits<char>,std::allocator<char> >
PUBLIC	??0?$basic_string@DU?$char_traits@D@std@@V?$allocator@D@2@@std@@QAE@ID@Z ; std::basic_string<char,std::char_traits<char>,std::allocator<char> >::basic_string<char,std::char_traits<char>,std::allocator<char> >
PUBLIC	??0?$basic_string@DU?$char_traits@D@std@@V?$allocator@D@2@@std@@QAE@$$QAV01@@Z ; std::basic_string<char,std::char_traits<char>,std::allocator<char> >::basic_string<char,std::char_traits<char>,std::allocator<char> >
PUBLIC	??4?$basic_string@DU?$char_traits@D@std@@V?$allocator@D@2@@std@@QAEAAV01@$$QAV01@@Z ; std::basic_string<char,std::char_traits<char>,std::allocator<char> >::operator=
PUBLIC	?assign@?$basic_string@DU?$char_traits@D@std@@V?$allocator@D@2@@std@@QAEAAV12@$$QAV12@@Z ; std::basic_string<char,std::char_traits<char>,std::allocator<char> >::assign
PUBLIC	?_Assign_rv_contents@?$basic_string@DU?$char_traits@D@std@@V?$allocator@D@2@@std@@QAEX$$QAV12@U?$integral_constant@_N$00@2@@Z ; std::basic_string<char,std::char_traits<char>,std::allocator<char> >::_Assign_rv_contents
PUBLIC	?_Assign_rv_contents_with_alloc_always_equal@?$basic_string@DU?$char_traits@D@std@@V?$allocator@D@2@@std@@QAEX$$QAV12@U?$integral_constant@_N$00@2@@Z ; std::basic_string<char,std::char_traits<char>,std::allocator<char> >::_Assign_rv_contents_with_alloc_always_equal
PUBLIC	?_Construct_lv_contents@?$basic_string@DU?$char_traits@D@std@@V?$allocator@D@2@@std@@QAEXABV12@@Z ; std::basic_string<char,std::char_traits<char>,std::allocator<char> >::_Construct_lv_contents
PUBLIC	??1?$basic_string@DU?$char_traits@D@std@@V?$allocator@D@2@@std@@QAE@XZ ; std::basic_string<char,std::char_traits<char>,std::allocator<char> >::~basic_string<char,std::char_traits<char>,std::allocator<char> >
PUBLIC	?append@?$basic_string@DU?$char_traits@D@std@@V?$allocator@D@2@@std@@QAEAAV12@ABV12@@Z ; std::basic_string<char,std::char_traits<char>,std::allocator<char> >::append
PUBLIC	?append@?$basic_string@DU?$char_traits@D@std@@V?$allocator@D@2@@std@@QAEAAV12@QBDI@Z ; std::basic_string<char,std::char_traits<char>,std::allocator<char> >::append
PUBLIC	?append@?$basic_string@DU?$char_traits@D@std@@V?$allocator@D@2@@std@@QAEAAV12@QBD@Z ; std::basic_string<char,std::char_traits<char>,std::allocator<char> >::append
PUBLIC	?append@?$basic_string@DU?$char_traits@D@std@@V?$allocator@D@2@@std@@QAEAAV12@ID@Z ; std::basic_string<char,std::char_traits<char>,std::allocator<char> >::append
PUBLIC	?assign@?$basic_string@DU?$char_traits@D@std@@V?$allocator@D@2@@std@@QAEAAV12@QBDI@Z ; std::basic_string<char,std::char_traits<char>,std::allocator<char> >::assign
PUBLIC	?assign@?$basic_string@DU?$char_traits@D@std@@V?$allocator@D@2@@std@@QAEAAV12@QBD@Z ; std::basic_string<char,std::char_traits<char>,std::allocator<char> >::assign
PUBLIC	?assign@?$basic_string@DU?$char_traits@D@std@@V?$allocator@D@2@@std@@QAEAAV12@ID@Z ; std::basic_string<char,std::char_traits<char>,std::allocator<char> >::assign
PUBLIC	?insert@?$basic_string@DU?$char_traits@D@std@@V?$allocator@D@2@@std@@QAEAAV12@IID@Z ; std::basic_string<char,std::char_traits<char>,std::allocator<char> >::insert
PUBLIC	??A?$basic_string@DU?$char_traits@D@std@@V?$allocator@D@2@@std@@QAEAADI@Z ; std::basic_string<char,std::char_traits<char>,std::allocator<char> >::operator[]
PUBLIC	??A?$basic_string@DU?$char_traits@D@std@@V?$allocator@D@2@@std@@QBEABDI@Z ; std::basic_string<char,std::char_traits<char>,std::allocator<char> >::operator[]
PUBLIC	?c_str@?$basic_string@DU?$char_traits@D@std@@V?$allocator@D@2@@std@@QBEPBDXZ ; std::basic_string<char,std::char_traits<char>,std::allocator<char> >::c_str
PUBLIC	?data@?$basic_string@DU?$char_traits@D@std@@V?$allocator@D@2@@std@@QBEPBDXZ ; std::basic_string<char,std::char_traits<char>,std::allocator<char> >::data
PUBLIC	?size@?$basic_string@DU?$char_traits@D@std@@V?$allocator@D@2@@std@@QBEIXZ ; std::basic_string<char,std::char_traits<char>,std::allocator<char> >::size
PUBLIC	?max_size@?$basic_string@DU?$char_traits@D@std@@V?$allocator@D@2@@std@@QBEIXZ ; std::basic_string<char,std::char_traits<char>,std::allocator<char> >::max_size
PUBLIC	?resize@?$basic_string@DU?$char_traits@D@std@@V?$allocator@D@2@@std@@QAEXID@Z ; std::basic_string<char,std::char_traits<char>,std::allocator<char> >::resize
PUBLIC	?empty@?$basic_string@DU?$char_traits@D@std@@V?$allocator@D@2@@std@@QBE_NXZ ; std::basic_string<char,std::char_traits<char>,std::allocator<char> >::empty
PUBLIC	?compare@?$basic_string@DU?$char_traits@D@std@@V?$allocator@D@2@@std@@QBEHABV12@@Z ; std::basic_string<char,std::char_traits<char>,std::allocator<char> >::compare
PUBLIC	?_Calculate_growth@?$basic_string@DU?$char_traits@D@std@@V?$allocator@D@2@@std@@QBEII@Z ; std::basic_string<char,std::char_traits<char>,std::allocator<char> >::_Calculate_growth
PUBLIC	?_Eos@?$basic_string@DU?$char_traits@D@std@@V?$allocator@D@2@@std@@QAEXI@Z ; std::basic_string<char,std::char_traits<char>,std::allocator<char> >::_Eos
PUBLIC	?_Tidy_init@?$basic_string@DU?$char_traits@D@std@@V?$allocator@D@2@@std@@QAEXXZ ; std::basic_string<char,std::char_traits<char>,std::allocator<char> >::_Tidy_init
PUBLIC	?_Tidy_deallocate@?$basic_string@DU?$char_traits@D@std@@V?$allocator@D@2@@std@@QAEXXZ ; std::basic_string<char,std::char_traits<char>,std::allocator<char> >::_Tidy_deallocate
PUBLIC	?_Xlen@?$basic_string@DU?$char_traits@D@std@@V?$allocator@D@2@@std@@SAXXZ ; std::basic_string<char,std::char_traits<char>,std::allocator<char> >::_Xlen
PUBLIC	??0runtime_error@std@@QAE@ABV?$basic_string@DU?$char_traits@D@std@@V?$allocator@D@2@@1@@Z ; std::runtime_error::runtime_error
PUBLIC	??0runtime_error@std@@QAE@PBD@Z			; std::runtime_error::runtime_error
PUBLIC	??1runtime_error@std@@UAE@XZ			; std::runtime_error::~runtime_error
PUBLIC	??0runtime_error@std@@QAE@ABV01@@Z		; std::runtime_error::runtime_error
PUBLIC	??_Gruntime_error@std@@UAEPAXI@Z		; std::runtime_error::`scalar deleting destructor'
PUBLIC	??0bad_cast@std@@QAE@XZ				; std::bad_cast::bad_cast
PUBLIC	??1bad_cast@std@@UAE@XZ				; std::bad_cast::~bad_cast
PUBLIC	??0bad_cast@std@@QAE@ABV01@@Z			; std::bad_cast::bad_cast
PUBLIC	??_Gbad_cast@std@@UAEPAXI@Z			; std::bad_cast::`scalar deleting destructor'
PUBLIC	??0_Locinfo@std@@QAE@PBD@Z			; std::_Locinfo::_Locinfo
PUBLIC	??1_Locinfo@std@@QAE@XZ				; std::_Locinfo::~_Locinfo
PUBLIC	?_Getctype@_Locinfo@std@@QBE?AU_Ctypevec@@XZ	; std::_Locinfo::_Getctype
PUBLIC	?_Getcvt@_Locinfo@std@@QBE?AU_Cvtvec@@XZ	; std::_Locinfo::_Getcvt
PUBLIC	?_Getlconv@_Locinfo@std@@QBEPBUlconv@@XZ	; std::_Locinfo::_Getlconv
PUBLIC	?_Getfalse@_Locinfo@std@@QBEPBDXZ		; std::_Locinfo::_Getfalse
PUBLIC	?_Gettrue@_Locinfo@std@@QBEPBDXZ		; std::_Locinfo::_Gettrue
PUBLIC	??0?$_Yarn@D@std@@QAE@XZ			; std::_Yarn<char>::_Yarn<char>
PUBLIC	??1?$_Yarn@D@std@@QAE@XZ			; std::_Yarn<char>::~_Yarn<char>
PUBLIC	?c_str@?$_Yarn@D@std@@QBEPBDXZ			; std::_Yarn<char>::c_str
PUBLIC	?_Tidy@?$_Yarn@D@std@@AAEXXZ			; std::_Yarn<char>::_Tidy
PUBLIC	??0?$_Yarn@_W@std@@QAE@XZ			; std::_Yarn<wchar_t>::_Yarn<wchar_t>
PUBLIC	??1?$_Yarn@_W@std@@QAE@XZ			; std::_Yarn<wchar_t>::~_Yarn<wchar_t>
PUBLIC	?_Tidy@?$_Yarn@_W@std@@AAEXXZ			; std::_Yarn<wchar_t>::_Tidy
PUBLIC	??1_Facet_base@std@@UAE@XZ			; std::_Facet_base::~_Facet_base
PUBLIC	??0_Facet_base@std@@QAE@XZ			; std::_Facet_base::_Facet_base
PUBLIC	??_G_Facet_base@std@@UAEPAXI@Z			; std::_Facet_base::`scalar deleting destructor'
PUBLIC	??2_Crt_new_delete@std@@SAPAXI@Z		; std::_Crt_new_delete::operator new
PUBLIC	??2_Crt_new_delete@std@@SAPAXIABUnothrow_t@1@@Z	; std::_Crt_new_delete::operator new
PUBLIC	??3_Crt_new_delete@std@@SAXPAX@Z		; std::_Crt_new_delete::operator delete
PUBLIC	??0id@locale@std@@QAE@I@Z			; std::locale::id::id
PUBLIC	??Bid@locale@std@@QAEIXZ			; std::locale::id::operator unsigned int
PUBLIC	?_Incref@facet@locale@std@@UAEXXZ		; std::locale::facet::_Incref
PUBLIC	?_Decref@facet@locale@std@@UAEPAV_Facet_base@3@XZ ; std::locale::facet::_Decref
PUBLIC	??0facet@locale@std@@IAE@I@Z			; std::locale::facet::facet
PUBLIC	??1facet@locale@std@@MAE@XZ			; std::locale::facet::~facet
PUBLIC	??_Gfacet@locale@std@@MAEPAXI@Z			; std::locale::facet::`scalar deleting destructor'
PUBLIC	??0locale@std@@QAE@ABV01@@Z			; std::locale::locale
PUBLIC	??1locale@std@@QAE@XZ				; std::locale::~locale
PUBLIC	?c_str@locale@std@@QBEPBDXZ			; std::locale::c_str
PUBLIC	?_Getfacet@locale@std@@QBEPBVfacet@12@I@Z	; std::locale::_Getfacet
PUBLIC	??$_Debug_range@PBD@std@@YAXPBD0PB_WI@Z		; std::_Debug_range<char const *>
PUBLIC	??0ctype_base@std@@QAE@I@Z			; std::ctype_base::ctype_base
PUBLIC	??1ctype_base@std@@UAE@XZ			; std::ctype_base::~ctype_base
PUBLIC	??_Gctype_base@std@@UAEPAXI@Z			; std::ctype_base::`scalar deleting destructor'
PUBLIC	?widen@?$ctype@D@std@@QBEPBDPBD0PAD@Z		; std::ctype<char>::widen
PUBLIC	??0?$ctype@D@std@@QAE@ABV_Locinfo@1@I@Z		; std::ctype<char>::ctype<char>
PUBLIC	?_Getcat@?$ctype@D@std@@SAIPAPBVfacet@locale@2@PBV42@@Z ; std::ctype<char>::_Getcat
PUBLIC	??1?$ctype@D@std@@MAE@XZ			; std::ctype<char>::~ctype<char>
PUBLIC	?_Init@?$ctype@D@std@@IAEXABV_Locinfo@2@@Z	; std::ctype<char>::_Init
PUBLIC	?_Tidy@?$ctype@D@std@@IAEXXZ			; std::ctype<char>::_Tidy
PUBLIC	?do_tolower@?$ctype@D@std@@MBEDD@Z		; std::ctype<char>::do_tolower
PUBLIC	?do_tolower@?$ctype@D@std@@MBEPBDPADPBD@Z	; std::ctype<char>::do_tolower
PUBLIC	?do_toupper@?$ctype@D@std@@MBEDD@Z		; std::ctype<char>::do_toupper
PUBLIC	?do_toupper@?$ctype@D@std@@MBEPBDPADPBD@Z	; std::ctype<char>::do_toupper
PUBLIC	?do_widen@?$ctype@D@std@@MBEDD@Z		; std::ctype<char>::do_widen
PUBLIC	?do_widen@?$ctype@D@std@@MBEPBDPBD0PAD@Z	; std::ctype<char>::do_widen
PUBLIC	?do_narrow@?$ctype@D@std@@MBEDDD@Z		; std::ctype<char>::do_narrow
PUBLIC	?do_narrow@?$ctype@D@std@@MBEPBDPBD0DPAD@Z	; std::ctype<char>::do_narrow
PUBLIC	??_G?$ctype@D@std@@MAEPAXI@Z			; std::ctype<char>::`scalar deleting destructor'
PUBLIC	??$use_facet@V?$ctype@D@std@@@std@@YAABV?$ctype@D@0@ABVlocale@0@@Z ; std::use_facet<std::ctype<char> >
PUBLIC	?make_error_code@std@@YA?AVerror_code@1@W4io_errc@1@@Z ; std::make_error_code
PUBLIC	?iostream_category@std@@YAABVerror_category@1@XZ ; std::iostream_category
PUBLIC	??0error_category@std@@QAE@XZ			; std::error_category::error_category
PUBLIC	??1error_category@std@@UAE@XZ			; std::error_category::~error_category
PUBLIC	?default_error_condition@error_category@std@@UBE?AVerror_condition@2@H@Z ; std::error_category::default_error_condition
PUBLIC	?equivalent@error_category@std@@UBE_NHABVerror_condition@2@@Z ; std::error_category::equivalent
PUBLIC	?equivalent@error_category@std@@UBE_NABVerror_code@2@H@Z ; std::error_category::equivalent
PUBLIC	??8error_category@std@@QBE_NABV01@@Z		; std::error_category::operator==
PUBLIC	??0error_code@std@@QAE@HABVerror_category@1@@Z	; std::error_code::error_code
PUBLIC	?value@error_code@std@@QBEHXZ			; std::error_code::value
PUBLIC	?category@error_code@std@@QBEABVerror_category@2@XZ ; std::error_code::category
PUBLIC	?message@error_code@std@@QBE?AV?$basic_string@DU?$char_traits@D@std@@V?$allocator@D@2@@2@XZ ; std::error_code::message
PUBLIC	??0error_condition@std@@QAE@HABVerror_category@1@@Z ; std::error_condition::error_condition
PUBLIC	?value@error_condition@std@@QBEHXZ		; std::error_condition::value
PUBLIC	?category@error_condition@std@@QBEABVerror_category@2@XZ ; std::error_condition::category
PUBLIC	??8std@@YA_NABVerror_condition@0@0@Z		; std::operator==
PUBLIC	?_Makestr@_System_error@std@@CA?AV?$basic_string@DU?$char_traits@D@std@@V?$allocator@D@2@@2@Verror_code@2@V32@@Z ; std::_System_error::_Makestr
PUBLIC	??0_System_error@std@@IAE@Verror_code@1@ABV?$basic_string@DU?$char_traits@D@std@@V?$allocator@D@2@@1@@Z ; std::_System_error::_System_error
PUBLIC	??1_System_error@std@@UAE@XZ			; std::_System_error::~_System_error
PUBLIC	??0_System_error@std@@QAE@ABV01@@Z		; std::_System_error::_System_error
PUBLIC	??_G_System_error@std@@UAEPAXI@Z		; std::_System_error::`scalar deleting destructor'
PUBLIC	??0system_error@std@@QAE@Verror_code@1@PBD@Z	; std::system_error::system_error
PUBLIC	??1system_error@std@@UAE@XZ			; std::system_error::~system_error
PUBLIC	??0system_error@std@@QAE@ABV01@@Z		; std::system_error::system_error
PUBLIC	??_Gsystem_error@std@@UAEPAXI@Z			; std::system_error::`scalar deleting destructor'
PUBLIC	??0_Generic_error_category@std@@QAE@XZ		; std::_Generic_error_category::_Generic_error_category
PUBLIC	?name@_Generic_error_category@std@@UBEPBDXZ	; std::_Generic_error_category::name
PUBLIC	?message@_Generic_error_category@std@@UBE?AV?$basic_string@DU?$char_traits@D@std@@V?$allocator@D@2@@2@H@Z ; std::_Generic_error_category::message
PUBLIC	??1_Generic_error_category@std@@UAE@XZ		; std::_Generic_error_category::~_Generic_error_category
PUBLIC	??_G_Generic_error_category@std@@UAEPAXI@Z	; std::_Generic_error_category::`scalar deleting destructor'
PUBLIC	??0_Iostream_error_category@std@@QAE@XZ		; std::_Iostream_error_category::_Iostream_error_category
PUBLIC	?name@_Iostream_error_category@std@@UBEPBDXZ	; std::_Iostream_error_category::name
PUBLIC	?message@_Iostream_error_category@std@@UBE?AV?$basic_string@DU?$char_traits@D@std@@V?$allocator@D@2@@2@H@Z ; std::_Iostream_error_category::message
PUBLIC	??1_Iostream_error_category@std@@UAE@XZ		; std::_Iostream_error_category::~_Iostream_error_category
PUBLIC	??_G_Iostream_error_category@std@@UAEPAXI@Z	; std::_Iostream_error_category::`scalar deleting destructor'
PUBLIC	??$_Immortalize@V_Iostream_error_category@std@@@std@@YAAAV_Iostream_error_category@0@XZ ; std::_Immortalize<std::_Iostream_error_category>
PUBLIC	??0failure@ios_base@std@@QAE@PBDABVerror_code@2@@Z ; std::ios_base::failure::failure
PUBLIC	??1failure@ios_base@std@@UAE@XZ			; std::ios_base::failure::~failure
PUBLIC	??0failure@ios_base@std@@QAE@ABV012@@Z		; std::ios_base::failure::failure
PUBLIC	??_Gfailure@ios_base@std@@UAEPAXI@Z		; std::ios_base::failure::`scalar deleting destructor'
PUBLIC	?clear@ios_base@std@@QAEXH_N@Z			; std::ios_base::clear
PUBLIC	?rdstate@ios_base@std@@QBEHXZ			; std::ios_base::rdstate
PUBLIC	?good@ios_base@std@@QBE_NXZ			; std::ios_base::good
PUBLIC	?flags@ios_base@std@@QBEHXZ			; std::ios_base::flags
PUBLIC	?precision@ios_base@std@@QBE_JXZ		; std::ios_base::precision
PUBLIC	?width@ios_base@std@@QBE_JXZ			; std::ios_base::width
PUBLIC	?width@ios_base@std@@QAE_J_J@Z			; std::ios_base::width
PUBLIC	?getloc@ios_base@std@@QBE?AVlocale@2@XZ		; std::ios_base::getloc
PUBLIC	?deallocate@?$allocator@U?$_Tree_node@U?$pair@$$CBV?$basic_string@DU?$char_traits@D@std@@V?$allocator@D@2@@std@@PAVFuzzySet@@@std@@PAX@std@@@std@@QAEXQAU?$_Tree_node@U?$pair@$$CBV?$basic_string@DU?$char_traits@D@std@@V?$allocator@D@2@@std@@PAVFuzzySet@@@std@@PAX@2@I@Z ; std::allocator<std::_Tree_node<std::pair<std::basic_string<char,std::char_traits<char>,std::allocator<char> > const ,FuzzySet *>,void *> >::deallocate
PUBLIC	?allocate@?$allocator@U?$_Tree_node@U?$pair@$$CBV?$basic_string@DU?$char_traits@D@std@@V?$allocator@D@2@@std@@PAVFuzzySet@@@std@@PAX@std@@@std@@QAEPAU?$_Tree_node@U?$pair@$$CBV?$basic_string@DU?$char_traits@D@std@@V?$allocator@D@2@@std@@PAVFuzzySet@@@std@@PAX@2@I@Z ; std::allocator<std::_Tree_node<std::pair<std::basic_string<char,std::char_traits<char>,std::allocator<char> > const ,FuzzySet *>,void *> >::allocate
PUBLIC	?deallocate@?$_Default_allocator_traits@V?$allocator@U?$_Tree_node@U?$pair@$$CBV?$basic_string@DU?$char_traits@D@std@@V?$allocator@D@2@@std@@PAVFuzzySet@@@std@@PAX@std@@@std@@@std@@SAXAAV?$allocator@U?$_Tree_node@U?$pair@$$CBV?$basic_string@DU?$char_traits@D@std@@V?$allocator@D@2@@std@@PAVFuzzySet@@@std@@PAX@std@@@2@QAU?$_Tree_node@U?$pair@$$CBV?$basic_string@DU?$char_traits@D@std@@V?$allocator@D@2@@std@@PAVFuzzySet@@@std@@PAX@2@I@Z ; std::_Default_allocator_traits<std::allocator<std::_Tree_node<std::pair<std::basic_string<char,std::char_traits<char>,std::allocator<char> > const ,FuzzySet *>,void *> > >::deallocate
PUBLIC	?max_size@?$_Default_allocator_traits@V?$allocator@U?$_Tree_node@U?$pair@$$CBV?$basic_string@DU?$char_traits@D@std@@V?$allocator@D@2@@std@@PAVFuzzySet@@@std@@PAX@std@@@std@@@std@@SAIABV?$allocator@U?$_Tree_node@U?$pair@$$CBV?$basic_string@DU?$char_traits@D@std@@V?$allocator@D@2@@std@@PAVFuzzySet@@@std@@PAX@std@@@2@@Z ; std::_Default_allocator_traits<std::allocator<std::_Tree_node<std::pair<std::basic_string<char,std::char_traits<char>,std::allocator<char> > const ,FuzzySet *>,void *> > >::max_size
PUBLIC	??1?$_Tree_comp_alloc@V?$_Tmap_traits@V?$basic_string@DU?$char_traits@D@std@@V?$allocator@D@2@@std@@PAVFuzzySet@@U?$less@V?$basic_string@DU?$char_traits@D@std@@V?$allocator@D@2@@std@@@2@V?$allocator@U?$pair@$$CBV?$basic_string@DU?$char_traits@D@std@@V?$allocator@D@2@@std@@PAVFuzzySet@@@std@@@2@$0A@@std@@@std@@QAE@XZ ; std::_Tree_comp_alloc<std::_Tmap_traits<std::basic_string<char,std::char_traits<char>,std::allocator<char> >,FuzzySet *,std::less<std::basic_string<char,std::char_traits<char>,std::allocator<char> > >,std::allocator<std::pair<std::basic_string<char,std::char_traits<char>,std::allocator<char> > const ,FuzzySet *> >,0> >::~_Tree_comp_alloc<std::_Tmap_traits<std::basic_string<char,std::char_traits<char>,std::allocator<char> >,FuzzySet *,std::less<std::basic_string<char,std::char_traits<char>,std::allocator<char> > >,std::allocator<std::pair<std::basic_string<char,std::char_traits<char>,std::allocator<char> > const ,FuzzySet *> >,0> >
PUBLIC	?_Free_proxy@?$_Tree_comp_alloc@V?$_Tmap_traits@V?$basic_string@DU?$char_traits@D@std@@V?$allocator@D@2@@std@@PAVFuzzySet@@U?$less@V?$basic_string@DU?$char_traits@D@std@@V?$allocator@D@2@@std@@@2@V?$allocator@U?$pair@$$CBV?$basic_string@DU?$char_traits@D@std@@V?$allocator@D@2@@std@@PAVFuzzySet@@@std@@@2@$0A@@std@@@std@@QAEXXZ ; std::_Tree_comp_alloc<std::_Tmap_traits<std::basic_string<char,std::char_traits<char>,std::allocator<char> >,FuzzySet *,std::less<std::basic_string<char,std::char_traits<char>,std::allocator<char> > >,std::allocator<std::pair<std::basic_string<char,std::char_traits<char>,std::allocator<char> > const ,FuzzySet *> >,0> >::_Free_proxy
PUBLIC	?_Getpfirst@?$_Tree_comp_alloc@V?$_Tmap_traits@V?$basic_string@DU?$char_traits@D@std@@V?$allocator@D@2@@std@@PAVFuzzySet@@U?$less@V?$basic_string@DU?$char_traits@D@std@@V?$allocator@D@2@@std@@@2@V?$allocator@U?$pair@$$CBV?$basic_string@DU?$char_traits@D@std@@V?$allocator@D@2@@std@@PAVFuzzySet@@@std@@@2@$0A@@std@@@std@@QBEPAPAU_Iterator_base12@2@XZ ; std::_Tree_comp_alloc<std::_Tmap_traits<std::basic_string<char,std::char_traits<char>,std::allocator<char> >,FuzzySet *,std::less<std::basic_string<char,std::char_traits<char>,std::allocator<char> > >,std::allocator<std::pair<std::basic_string<char,std::char_traits<char>,std::allocator<char> > const ,FuzzySet *> >,0> >::_Getpfirst
PUBLIC	?_Myproxy@?$_Tree_comp_alloc@V?$_Tmap_traits@V?$basic_string@DU?$char_traits@D@std@@V?$allocator@D@2@@std@@PAVFuzzySet@@U?$less@V?$basic_string@DU?$char_traits@D@std@@V?$allocator@D@2@@std@@@2@V?$allocator@U?$pair@$$CBV?$basic_string@DU?$char_traits@D@std@@V?$allocator@D@2@@std@@PAVFuzzySet@@@std@@@2@$0A@@std@@@std@@QAEAAPAU_Container_proxy@2@XZ ; std::_Tree_comp_alloc<std::_Tmap_traits<std::basic_string<char,std::char_traits<char>,std::allocator<char> >,FuzzySet *,std::less<std::basic_string<char,std::char_traits<char>,std::allocator<char> > >,std::allocator<std::pair<std::basic_string<char,std::char_traits<char>,std::allocator<char> > const ,FuzzySet *> >,0> >::_Myproxy
PUBLIC	?_Orphan_all@?$_Tree_comp_alloc@V?$_Tmap_traits@V?$basic_string@DU?$char_traits@D@std@@V?$allocator@D@2@@std@@PAVFuzzySet@@U?$less@V?$basic_string@DU?$char_traits@D@std@@V?$allocator@D@2@@std@@@2@V?$allocator@U?$pair@$$CBV?$basic_string@DU?$char_traits@D@std@@V?$allocator@D@2@@std@@PAVFuzzySet@@@std@@@2@$0A@@std@@@std@@QAEXXZ ; std::_Tree_comp_alloc<std::_Tmap_traits<std::basic_string<char,std::char_traits<char>,std::allocator<char> >,FuzzySet *,std::less<std::basic_string<char,std::char_traits<char>,std::allocator<char> > >,std::allocator<std::pair<std::basic_string<char,std::char_traits<char>,std::allocator<char> > const ,FuzzySet *> >,0> >::_Orphan_all
PUBLIC	?_Freeheadnode@?$_Tree_comp_alloc@V?$_Tmap_traits@V?$basic_string@DU?$char_traits@D@std@@V?$allocator@D@2@@std@@PAVFuzzySet@@U?$less@V?$basic_string@DU?$char_traits@D@std@@V?$allocator@D@2@@std@@@2@V?$allocator@U?$pair@$$CBV?$basic_string@DU?$char_traits@D@std@@V?$allocator@D@2@@std@@PAVFuzzySet@@@std@@@2@$0A@@std@@@std@@QAEXPAU?$_Tree_node@U?$pair@$$CBV?$basic_string@DU?$char_traits@D@std@@V?$allocator@D@2@@std@@PAVFuzzySet@@@std@@PAX@2@@Z ; std::_Tree_comp_alloc<std::_Tmap_traits<std::basic_string<char,std::char_traits<char>,std::allocator<char> >,FuzzySet *,std::less<std::basic_string<char,std::char_traits<char>,std::allocator<char> > >,std::allocator<std::pair<std::basic_string<char,std::char_traits<char>,std::allocator<char> > const ,FuzzySet *> >,0> >::_Freeheadnode
PUBLIC	?_Buynode0@?$_Tree_comp_alloc@V?$_Tmap_traits@V?$basic_string@DU?$char_traits@D@std@@V?$allocator@D@2@@std@@PAVFuzzySet@@U?$less@V?$basic_string@DU?$char_traits@D@std@@V?$allocator@D@2@@std@@@2@V?$allocator@U?$pair@$$CBV?$basic_string@DU?$char_traits@D@std@@V?$allocator@D@2@@std@@PAVFuzzySet@@@std@@@2@$0A@@std@@@std@@QAEPAU?$_Tree_node@U?$pair@$$CBV?$basic_string@DU?$char_traits@D@std@@V?$allocator@D@2@@std@@PAVFuzzySet@@@std@@PAX@2@XZ ; std::_Tree_comp_alloc<std::_Tmap_traits<std::basic_string<char,std::char_traits<char>,std::allocator<char> >,FuzzySet *,std::less<std::basic_string<char,std::char_traits<char>,std::allocator<char> > >,std::allocator<std::pair<std::basic_string<char,std::char_traits<char>,std::allocator<char> > const ,FuzzySet *> >,0> >::_Buynode0
PUBLIC	?_Freenode0@?$_Tree_comp_alloc@V?$_Tmap_traits@V?$basic_string@DU?$char_traits@D@std@@V?$allocator@D@2@@std@@PAVFuzzySet@@U?$less@V?$basic_string@DU?$char_traits@D@std@@V?$allocator@D@2@@std@@@2@V?$allocator@U?$pair@$$CBV?$basic_string@DU?$char_traits@D@std@@V?$allocator@D@2@@std@@PAVFuzzySet@@@std@@@2@$0A@@std@@@std@@QAEXPAU?$_Tree_node@U?$pair@$$CBV?$basic_string@DU?$char_traits@D@std@@V?$allocator@D@2@@std@@PAVFuzzySet@@@std@@PAX@2@@Z ; std::_Tree_comp_alloc<std::_Tmap_traits<std::basic_string<char,std::char_traits<char>,std::allocator<char> >,FuzzySet *,std::less<std::basic_string<char,std::char_traits<char>,std::allocator<char> > >,std::allocator<std::pair<std::basic_string<char,std::char_traits<char>,std::allocator<char> > const ,FuzzySet *> >,0> >::_Freenode0
PUBLIC	?_Getcomp@?$_Tree_comp_alloc@V?$_Tmap_traits@V?$basic_string@DU?$char_traits@D@std@@V?$allocator@D@2@@std@@PAVFuzzySet@@U?$less@V?$basic_string@DU?$char_traits@D@std@@V?$allocator@D@2@@std@@@2@V?$allocator@U?$pair@$$CBV?$basic_string@DU?$char_traits@D@std@@V?$allocator@D@2@@std@@PAVFuzzySet@@@std@@@2@$0A@@std@@@std@@QAEAAU?$less@V?$basic_string@DU?$char_traits@D@std@@V?$allocator@D@2@@std@@@2@XZ ; std::_Tree_comp_alloc<std::_Tmap_traits<std::basic_string<char,std::char_traits<char>,std::allocator<char> >,FuzzySet *,std::less<std::basic_string<char,std::char_traits<char>,std::allocator<char> > >,std::allocator<std::pair<std::basic_string<char,std::char_traits<char>,std::allocator<char> > const ,FuzzySet *> >,0> >::_Getcomp
PUBLIC	?_Getcomp@?$_Tree_comp_alloc@V?$_Tmap_traits@V?$basic_string@DU?$char_traits@D@std@@V?$allocator@D@2@@std@@PAVFuzzySet@@U?$less@V?$basic_string@DU?$char_traits@D@std@@V?$allocator@D@2@@std@@@2@V?$allocator@U?$pair@$$CBV?$basic_string@DU?$char_traits@D@std@@V?$allocator@D@2@@std@@PAVFuzzySet@@@std@@@2@$0A@@std@@@std@@QBEABU?$less@V?$basic_string@DU?$char_traits@D@std@@V?$allocator@D@2@@std@@@2@XZ ; std::_Tree_comp_alloc<std::_Tmap_traits<std::basic_string<char,std::char_traits<char>,std::allocator<char> >,FuzzySet *,std::less<std::basic_string<char,std::char_traits<char>,std::allocator<char> > >,std::allocator<std::pair<std::basic_string<char,std::char_traits<char>,std::allocator<char> > const ,FuzzySet *> >,0> >::_Getcomp
PUBLIC	?_Getal@?$_Tree_comp_alloc@V?$_Tmap_traits@V?$basic_string@DU?$char_traits@D@std@@V?$allocator@D@2@@std@@PAVFuzzySet@@U?$less@V?$basic_string@DU?$char_traits@D@std@@V?$allocator@D@2@@std@@@2@V?$allocator@U?$pair@$$CBV?$basic_string@DU?$char_traits@D@std@@V?$allocator@D@2@@std@@PAVFuzzySet@@@std@@@2@$0A@@std@@@std@@QAEAAV?$allocator@U?$_Tree_node@U?$pair@$$CBV?$basic_string@DU?$char_traits@D@std@@V?$allocator@D@2@@std@@PAVFuzzySet@@@std@@PAX@std@@@2@XZ ; std::_Tree_comp_alloc<std::_Tmap_traits<std::basic_string<char,std::char_traits<char>,std::allocator<char> >,FuzzySet *,std::less<std::basic_string<char,std::char_traits<char>,std::allocator<char> > >,std::allocator<std::pair<std::basic_string<char,std::char_traits<char>,std::allocator<char> > const ,FuzzySet *> >,0> >::_Getal
PUBLIC	?_Getal@?$_Tree_comp_alloc@V?$_Tmap_traits@V?$basic_string@DU?$char_traits@D@std@@V?$allocator@D@2@@std@@PAVFuzzySet@@U?$less@V?$basic_string@DU?$char_traits@D@std@@V?$allocator@D@2@@std@@@2@V?$allocator@U?$pair@$$CBV?$basic_string@DU?$char_traits@D@std@@V?$allocator@D@2@@std@@PAVFuzzySet@@@std@@@2@$0A@@std@@@std@@QBEABV?$allocator@U?$_Tree_node@U?$pair@$$CBV?$basic_string@DU?$char_traits@D@std@@V?$allocator@D@2@@std@@PAVFuzzySet@@@std@@PAX@std@@@2@XZ ; std::_Tree_comp_alloc<std::_Tmap_traits<std::basic_string<char,std::char_traits<char>,std::allocator<char> >,FuzzySet *,std::less<std::basic_string<char,std::char_traits<char>,std::allocator<char> > >,std::allocator<std::pair<std::basic_string<char,std::char_traits<char>,std::allocator<char> > const ,FuzzySet *> >,0> >::_Getal
PUBLIC	?_Get_data@?$_Tree_comp_alloc@V?$_Tmap_traits@V?$basic_string@DU?$char_traits@D@std@@V?$allocator@D@2@@std@@PAVFuzzySet@@U?$less@V?$basic_string@DU?$char_traits@D@std@@V?$allocator@D@2@@std@@@2@V?$allocator@U?$pair@$$CBV?$basic_string@DU?$char_traits@D@std@@V?$allocator@D@2@@std@@PAVFuzzySet@@@std@@@2@$0A@@std@@@std@@QAEAAV?$_Tree_val@U?$_Tree_simple_types@U?$pair@$$CBV?$basic_string@DU?$char_traits@D@std@@V?$allocator@D@2@@std@@PAVFuzzySet@@@std@@@std@@@2@XZ ; std::_Tree_comp_alloc<std::_Tmap_traits<std::basic_string<char,std::char_traits<char>,std::allocator<char> >,FuzzySet *,std::less<std::basic_string<char,std::char_traits<char>,std::allocator<char> > >,std::allocator<std::pair<std::basic_string<char,std::char_traits<char>,std::allocator<char> > const ,FuzzySet *> >,0> >::_Get_data
PUBLIC	?_Get_data@?$_Tree_comp_alloc@V?$_Tmap_traits@V?$basic_string@DU?$char_traits@D@std@@V?$allocator@D@2@@std@@PAVFuzzySet@@U?$less@V?$basic_string@DU?$char_traits@D@std@@V?$allocator@D@2@@std@@@2@V?$allocator@U?$pair@$$CBV?$basic_string@DU?$char_traits@D@std@@V?$allocator@D@2@@std@@PAVFuzzySet@@@std@@@2@$0A@@std@@@std@@QBEABV?$_Tree_val@U?$_Tree_simple_types@U?$pair@$$CBV?$basic_string@DU?$char_traits@D@std@@V?$allocator@D@2@@std@@PAVFuzzySet@@@std@@@std@@@2@XZ ; std::_Tree_comp_alloc<std::_Tmap_traits<std::basic_string<char,std::char_traits<char>,std::allocator<char> >,FuzzySet *,std::less<std::basic_string<char,std::char_traits<char>,std::allocator<char> > >,std::allocator<std::pair<std::basic_string<char,std::char_traits<char>,std::allocator<char> > const ,FuzzySet *> >,0> >::_Get_data
PUBLIC	??R?$less@V?$basic_string@DU?$char_traits@D@std@@V?$allocator@D@2@@std@@@std@@QBE_NABV?$basic_string@DU?$char_traits@D@std@@V?$allocator@D@2@@1@0@Z ; std::less<std::basic_string<char,std::char_traits<char>,std::allocator<char> > >::operator()
PUBLIC	?_Max@?$_Tree_val@U?$_Tree_simple_types@U?$pair@$$CBV?$basic_string@DU?$char_traits@D@std@@V?$allocator@D@2@@std@@PAVFuzzySet@@@std@@@std@@@std@@SAPAU?$_Tree_node@U?$pair@$$CBV?$basic_string@DU?$char_traits@D@std@@V?$allocator@D@2@@std@@PAVFuzzySet@@@std@@PAX@2@PAU32@@Z ; std::_Tree_val<std::_Tree_simple_types<std::pair<std::basic_string<char,std::char_traits<char>,std::allocator<char> > const ,FuzzySet *> > >::_Max
PUBLIC	?_Min@?$_Tree_val@U?$_Tree_simple_types@U?$pair@$$CBV?$basic_string@DU?$char_traits@D@std@@V?$allocator@D@2@@std@@PAVFuzzySet@@@std@@@std@@@std@@SAPAU?$_Tree_node@U?$pair@$$CBV?$basic_string@DU?$char_traits@D@std@@V?$allocator@D@2@@std@@PAVFuzzySet@@@std@@PAX@2@PAU32@@Z ; std::_Tree_val<std::_Tree_simple_types<std::pair<std::basic_string<char,std::char_traits<char>,std::allocator<char> > const ,FuzzySet *> > >::_Min
PUBLIC	?_Root@?$_Tree_val@U?$_Tree_simple_types@U?$pair@$$CBV?$basic_string@DU?$char_traits@D@std@@V?$allocator@D@2@@std@@PAVFuzzySet@@@std@@@std@@@std@@QBEAAPAU?$_Tree_node@U?$pair@$$CBV?$basic_string@DU?$char_traits@D@std@@V?$allocator@D@2@@std@@PAVFuzzySet@@@std@@PAX@2@XZ ; std::_Tree_val<std::_Tree_simple_types<std::pair<std::basic_string<char,std::char_traits<char>,std::allocator<char> > const ,FuzzySet *> > >::_Root
PUBLIC	?_Lmost@?$_Tree_val@U?$_Tree_simple_types@U?$pair@$$CBV?$basic_string@DU?$char_traits@D@std@@V?$allocator@D@2@@std@@PAVFuzzySet@@@std@@@std@@@std@@QBEAAPAU?$_Tree_node@U?$pair@$$CBV?$basic_string@DU?$char_traits@D@std@@V?$allocator@D@2@@std@@PAVFuzzySet@@@std@@PAX@2@XZ ; std::_Tree_val<std::_Tree_simple_types<std::pair<std::basic_string<char,std::char_traits<char>,std::allocator<char> > const ,FuzzySet *> > >::_Lmost
PUBLIC	?_Rmost@?$_Tree_val@U?$_Tree_simple_types@U?$pair@$$CBV?$basic_string@DU?$char_traits@D@std@@V?$allocator@D@2@@std@@PAVFuzzySet@@@std@@@std@@@std@@QBEAAPAU?$_Tree_node@U?$pair@$$CBV?$basic_string@DU?$char_traits@D@std@@V?$allocator@D@2@@std@@PAVFuzzySet@@@std@@PAX@2@XZ ; std::_Tree_val<std::_Tree_simple_types<std::pair<std::basic_string<char,std::char_traits<char>,std::allocator<char> > const ,FuzzySet *> > >::_Rmost
PUBLIC	?_Lrotate@?$_Tree_val@U?$_Tree_simple_types@U?$pair@$$CBV?$basic_string@DU?$char_traits@D@std@@V?$allocator@D@2@@std@@PAVFuzzySet@@@std@@@std@@@std@@QAEXPAU?$_Tree_node@U?$pair@$$CBV?$basic_string@DU?$char_traits@D@std@@V?$allocator@D@2@@std@@PAVFuzzySet@@@std@@PAX@2@@Z ; std::_Tree_val<std::_Tree_simple_types<std::pair<std::basic_string<char,std::char_traits<char>,std::allocator<char> > const ,FuzzySet *> > >::_Lrotate
PUBLIC	?_Rrotate@?$_Tree_val@U?$_Tree_simple_types@U?$pair@$$CBV?$basic_string@DU?$char_traits@D@std@@V?$allocator@D@2@@std@@PAVFuzzySet@@@std@@@std@@@std@@QAEXPAU?$_Tree_node@U?$pair@$$CBV?$basic_string@DU?$char_traits@D@std@@V?$allocator@D@2@@std@@PAVFuzzySet@@@std@@PAX@2@@Z ; std::_Tree_val<std::_Tree_simple_types<std::pair<std::basic_string<char,std::char_traits<char>,std::allocator<char> > const ,FuzzySet *> > >::_Rrotate
PUBLIC	?_Extract@?$_Tree_val@U?$_Tree_simple_types@U?$pair@$$CBV?$basic_string@DU?$char_traits@D@std@@V?$allocator@D@2@@std@@PAVFuzzySet@@@std@@@std@@@std@@QAEPAU?$_Tree_node@U?$pair@$$CBV?$basic_string@DU?$char_traits@D@std@@V?$allocator@D@2@@std@@PAVFuzzySet@@@std@@PAX@2@V?$_Tree_const_iterator@V?$_Tree_val@U?$_Tree_simple_types@U?$pair@$$CBV?$basic_string@DU?$char_traits@D@std@@V?$allocator@D@2@@std@@PAVFuzzySet@@@std@@@std@@@std@@@2@@Z ; std::_Tree_val<std::_Tree_simple_types<std::pair<std::basic_string<char,std::char_traits<char>,std::allocator<char> > const ,FuzzySet *> > >::_Extract
PUBLIC	?_Get_first@?$_Compressed_pair@V?$allocator@U?$_Tree_node@U?$pair@$$CBV?$basic_string@DU?$char_traits@D@std@@V?$allocator@D@2@@std@@PAVFuzzySet@@@std@@PAX@std@@@std@@V?$_Tree_val@U?$_Tree_simple_types@U?$pair@$$CBV?$basic_string@DU?$char_traits@D@std@@V?$allocator@D@2@@std@@PAVFuzzySet@@@std@@@std@@@2@$00@std@@QAEAAV?$allocator@U?$_Tree_node@U?$pair@$$CBV?$basic_string@DU?$char_traits@D@std@@V?$allocator@D@2@@std@@PAVFuzzySet@@@std@@PAX@std@@@2@XZ ; std::_Compressed_pair<std::allocator<std::_Tree_node<std::pair<std::basic_string<char,std::char_traits<char>,std::allocator<char> > const ,FuzzySet *>,void *> >,std::_Tree_val<std::_Tree_simple_types<std::pair<std::basic_string<char,std::char_traits<char>,std::allocator<char> > const ,FuzzySet *> > >,1>::_Get_first
PUBLIC	?_Get_first@?$_Compressed_pair@V?$allocator@U?$_Tree_node@U?$pair@$$CBV?$basic_string@DU?$char_traits@D@std@@V?$allocator@D@2@@std@@PAVFuzzySet@@@std@@PAX@std@@@std@@V?$_Tree_val@U?$_Tree_simple_types@U?$pair@$$CBV?$basic_string@DU?$char_traits@D@std@@V?$allocator@D@2@@std@@PAVFuzzySet@@@std@@@std@@@2@$00@std@@QBEABV?$allocator@U?$_Tree_node@U?$pair@$$CBV?$basic_string@DU?$char_traits@D@std@@V?$allocator@D@2@@std@@PAVFuzzySet@@@std@@PAX@std@@@2@XZ ; std::_Compressed_pair<std::allocator<std::_Tree_node<std::pair<std::basic_string<char,std::char_traits<char>,std::allocator<char> > const ,FuzzySet *>,void *> >,std::_Tree_val<std::_Tree_simple_types<std::pair<std::basic_string<char,std::char_traits<char>,std::allocator<char> > const ,FuzzySet *> > >,1>::_Get_first
PUBLIC	?_Get_second@?$_Compressed_pair@V?$allocator@U?$_Tree_node@U?$pair@$$CBV?$basic_string@DU?$char_traits@D@std@@V?$allocator@D@2@@std@@PAVFuzzySet@@@std@@PAX@std@@@std@@V?$_Tree_val@U?$_Tree_simple_types@U?$pair@$$CBV?$basic_string@DU?$char_traits@D@std@@V?$allocator@D@2@@std@@PAVFuzzySet@@@std@@@std@@@2@$00@std@@QAEAAV?$_Tree_val@U?$_Tree_simple_types@U?$pair@$$CBV?$basic_string@DU?$char_traits@D@std@@V?$allocator@D@2@@std@@PAVFuzzySet@@@std@@@std@@@2@XZ ; std::_Compressed_pair<std::allocator<std::_Tree_node<std::pair<std::basic_string<char,std::char_traits<char>,std::allocator<char> > const ,FuzzySet *>,void *> >,std::_Tree_val<std::_Tree_simple_types<std::pair<std::basic_string<char,std::char_traits<char>,std::allocator<char> > const ,FuzzySet *> > >,1>::_Get_second
PUBLIC	?_Get_second@?$_Compressed_pair@V?$allocator@U?$_Tree_node@U?$pair@$$CBV?$basic_string@DU?$char_traits@D@std@@V?$allocator@D@2@@std@@PAVFuzzySet@@@std@@PAX@std@@@std@@V?$_Tree_val@U?$_Tree_simple_types@U?$pair@$$CBV?$basic_string@DU?$char_traits@D@std@@V?$allocator@D@2@@std@@PAVFuzzySet@@@std@@@std@@@2@$00@std@@QBEABV?$_Tree_val@U?$_Tree_simple_types@U?$pair@$$CBV?$basic_string@DU?$char_traits@D@std@@V?$allocator@D@2@@std@@PAVFuzzySet@@@std@@@std@@@2@XZ ; std::_Compressed_pair<std::allocator<std::_Tree_node<std::pair<std::basic_string<char,std::char_traits<char>,std::allocator<char> > const ,FuzzySet *>,void *> >,std::_Tree_val<std::_Tree_simple_types<std::pair<std::basic_string<char,std::char_traits<char>,std::allocator<char> > const ,FuzzySet *> > >,1>::_Get_second
PUBLIC	?_Get_first@?$_Compressed_pair@U?$less@V?$basic_string@DU?$char_traits@D@std@@V?$allocator@D@2@@std@@@std@@V?$_Compressed_pair@V?$allocator@U?$_Tree_node@U?$pair@$$CBV?$basic_string@DU?$char_traits@D@std@@V?$allocator@D@2@@std@@PAVFuzzySet@@@std@@PAX@std@@@std@@V?$_Tree_val@U?$_Tree_simple_types@U?$pair@$$CBV?$basic_string@DU?$char_traits@D@std@@V?$allocator@D@2@@std@@PAVFuzzySet@@@std@@@std@@@2@$00@2@$00@std@@QAEAAU?$less@V?$basic_string@DU?$char_traits@D@std@@V?$allocator@D@2@@std@@@2@XZ ; std::_Compressed_pair<std::less<std::basic_string<char,std::char_traits<char>,std::allocator<char> > >,std::_Compressed_pair<std::allocator<std::_Tree_node<std::pair<std::basic_string<char,std::char_traits<char>,std::allocator<char> > const ,FuzzySet *>,void *> >,std::_Tree_val<std::_Tree_simple_types<std::pair<std::basic_string<char,std::char_traits<char>,std::allocator<char> > const ,FuzzySet *> > >,1>,1>::_Get_first
PUBLIC	?_Get_first@?$_Compressed_pair@U?$less@V?$basic_string@DU?$char_traits@D@std@@V?$allocator@D@2@@std@@@std@@V?$_Compressed_pair@V?$allocator@U?$_Tree_node@U?$pair@$$CBV?$basic_string@DU?$char_traits@D@std@@V?$allocator@D@2@@std@@PAVFuzzySet@@@std@@PAX@std@@@std@@V?$_Tree_val@U?$_Tree_simple_types@U?$pair@$$CBV?$basic_string@DU?$char_traits@D@std@@V?$allocator@D@2@@std@@PAVFuzzySet@@@std@@@std@@@2@$00@2@$00@std@@QBEABU?$less@V?$basic_string@DU?$char_traits@D@std@@V?$allocator@D@2@@std@@@2@XZ ; std::_Compressed_pair<std::less<std::basic_string<char,std::char_traits<char>,std::allocator<char> > >,std::_Compressed_pair<std::allocator<std::_Tree_node<std::pair<std::basic_string<char,std::char_traits<char>,std::allocator<char> > const ,FuzzySet *>,void *> >,std::_Tree_val<std::_Tree_simple_types<std::pair<std::basic_string<char,std::char_traits<char>,std::allocator<char> > const ,FuzzySet *> > >,1>,1>::_Get_first
PUBLIC	?_Get_second@?$_Compressed_pair@U?$less@V?$basic_string@DU?$char_traits@D@std@@V?$allocator@D@2@@std@@@std@@V?$_Compressed_pair@V?$allocator@U?$_Tree_node@U?$pair@$$CBV?$basic_string@DU?$char_traits@D@std@@V?$allocator@D@2@@std@@PAVFuzzySet@@@std@@PAX@std@@@std@@V?$_Tree_val@U?$_Tree_simple_types@U?$pair@$$CBV?$basic_string@DU?$char_traits@D@std@@V?$allocator@D@2@@std@@PAVFuzzySet@@@std@@@std@@@2@$00@2@$00@std@@QAEAAV?$_Compressed_pair@V?$allocator@U?$_Tree_node@U?$pair@$$CBV?$basic_string@DU?$char_traits@D@std@@V?$allocator@D@2@@std@@PAVFuzzySet@@@std@@PAX@std@@@std@@V?$_Tree_val@U?$_Tree_simple_types@U?$pair@$$CBV?$basic_string@DU?$char_traits@D@std@@V?$allocator@D@2@@std@@PAVFuzzySet@@@std@@@std@@@2@$00@2@XZ ; std::_Compressed_pair<std::less<std::basic_string<char,std::char_traits<char>,std::allocator<char> > >,std::_Compressed_pair<std::allocator<std::_Tree_node<std::pair<std::basic_string<char,std::char_traits<char>,std::allocator<char> > const ,FuzzySet *>,void *> >,std::_Tree_val<std::_Tree_simple_types<std::pair<std::basic_string<char,std::char_traits<char>,std::allocator<char> > const ,FuzzySet *> > >,1>,1>::_Get_second
PUBLIC	?_Get_second@?$_Compressed_pair@U?$less@V?$basic_string@DU?$char_traits@D@std@@V?$allocator@D@2@@std@@@std@@V?$_Compressed_pair@V?$allocator@U?$_Tree_node@U?$pair@$$CBV?$basic_string@DU?$char_traits@D@std@@V?$allocator@D@2@@std@@PAVFuzzySet@@@std@@PAX@std@@@std@@V?$_Tree_val@U?$_Tree_simple_types@U?$pair@$$CBV?$basic_string@DU?$char_traits@D@std@@V?$allocator@D@2@@std@@PAVFuzzySet@@@std@@@std@@@2@$00@2@$00@std@@QBEABV?$_Compressed_pair@V?$allocator@U?$_Tree_node@U?$pair@$$CBV?$basic_string@DU?$char_traits@D@std@@V?$allocator@D@2@@std@@PAVFuzzySet@@@std@@PAX@std@@@std@@V?$_Tree_val@U?$_Tree_simple_types@U?$pair@$$CBV?$basic_string@DU?$char_traits@D@std@@V?$allocator@D@2@@std@@PAVFuzzySet@@@std@@@std@@@2@$00@2@XZ ; std::_Compressed_pair<std::less<std::basic_string<char,std::char_traits<char>,std::allocator<char> > >,std::_Compressed_pair<std::allocator<std::_Tree_node<std::pair<std::basic_string<char,std::char_traits<char>,std::allocator<char> > const ,FuzzySet *>,void *> >,std::_Tree_val<std::_Tree_simple_types<std::pair<std::basic_string<char,std::char_traits<char>,std::allocator<char> > const ,FuzzySet *> > >,1>,1>::_Get_second
PUBLIC	??1?$_Tree@V?$_Tmap_traits@V?$basic_string@DU?$char_traits@D@std@@V?$allocator@D@2@@std@@PAVFuzzySet@@U?$less@V?$basic_string@DU?$char_traits@D@std@@V?$allocator@D@2@@std@@@2@V?$allocator@U?$pair@$$CBV?$basic_string@DU?$char_traits@D@std@@V?$allocator@D@2@@std@@PAVFuzzySet@@@std@@@2@$0A@@std@@@std@@QAE@XZ ; std::_Tree<std::_Tmap_traits<std::basic_string<char,std::char_traits<char>,std::allocator<char> >,FuzzySet *,std::less<std::basic_string<char,std::char_traits<char>,std::allocator<char> > >,std::allocator<std::pair<std::basic_string<char,std::char_traits<char>,std::allocator<char> > const ,FuzzySet *> >,0> >::~_Tree<std::_Tmap_traits<std::basic_string<char,std::char_traits<char>,std::allocator<char> >,FuzzySet *,std::less<std::basic_string<char,std::char_traits<char>,std::allocator<char> > >,std::allocator<std::pair<std::basic_string<char,std::char_traits<char>,std::allocator<char> > const ,FuzzySet *> >,0> >
PUBLIC	?begin@?$_Tree@V?$_Tmap_traits@V?$basic_string@DU?$char_traits@D@std@@V?$allocator@D@2@@std@@PAVFuzzySet@@U?$less@V?$basic_string@DU?$char_traits@D@std@@V?$allocator@D@2@@std@@@2@V?$allocator@U?$pair@$$CBV?$basic_string@DU?$char_traits@D@std@@V?$allocator@D@2@@std@@PAVFuzzySet@@@std@@@2@$0A@@std@@@std@@QAE?AV?$_Tree_iterator@V?$_Tree_val@U?$_Tree_simple_types@U?$pair@$$CBV?$basic_string@DU?$char_traits@D@std@@V?$allocator@D@2@@std@@PAVFuzzySet@@@std@@@std@@@std@@@2@XZ ; std::_Tree<std::_Tmap_traits<std::basic_string<char,std::char_traits<char>,std::allocator<char> >,FuzzySet *,std::less<std::basic_string<char,std::char_traits<char>,std::allocator<char> > >,std::allocator<std::pair<std::basic_string<char,std::char_traits<char>,std::allocator<char> > const ,FuzzySet *> >,0> >::begin
PUBLIC	?begin@?$_Tree@V?$_Tmap_traits@V?$basic_string@DU?$char_traits@D@std@@V?$allocator@D@2@@std@@PAVFuzzySet@@U?$less@V?$basic_string@DU?$char_traits@D@std@@V?$allocator@D@2@@std@@@2@V?$allocator@U?$pair@$$CBV?$basic_string@DU?$char_traits@D@std@@V?$allocator@D@2@@std@@PAVFuzzySet@@@std@@@2@$0A@@std@@@std@@QBE?AV?$_Tree_const_iterator@V?$_Tree_val@U?$_Tree_simple_types@U?$pair@$$CBV?$basic_string@DU?$char_traits@D@std@@V?$allocator@D@2@@std@@PAVFuzzySet@@@std@@@std@@@std@@@2@XZ ; std::_Tree<std::_Tmap_traits<std::basic_string<char,std::char_traits<char>,std::allocator<char> >,FuzzySet *,std::less<std::basic_string<char,std::char_traits<char>,std::allocator<char> > >,std::allocator<std::pair<std::basic_string<char,std::char_traits<char>,std::allocator<char> > const ,FuzzySet *> >,0> >::begin
PUBLIC	?end@?$_Tree@V?$_Tmap_traits@V?$basic_string@DU?$char_traits@D@std@@V?$allocator@D@2@@std@@PAVFuzzySet@@U?$less@V?$basic_string@DU?$char_traits@D@std@@V?$allocator@D@2@@std@@@2@V?$allocator@U?$pair@$$CBV?$basic_string@DU?$char_traits@D@std@@V?$allocator@D@2@@std@@PAVFuzzySet@@@std@@@2@$0A@@std@@@std@@QAE?AV?$_Tree_iterator@V?$_Tree_val@U?$_Tree_simple_types@U?$pair@$$CBV?$basic_string@DU?$char_traits@D@std@@V?$allocator@D@2@@std@@PAVFuzzySet@@@std@@@std@@@std@@@2@XZ ; std::_Tree<std::_Tmap_traits<std::basic_string<char,std::char_traits<char>,std::allocator<char> >,FuzzySet *,std::less<std::basic_string<char,std::char_traits<char>,std::allocator<char> > >,std::allocator<std::pair<std::basic_string<char,std::char_traits<char>,std::allocator<char> > const ,FuzzySet *> >,0> >::end
PUBLIC	?end@?$_Tree@V?$_Tmap_traits@V?$basic_string@DU?$char_traits@D@std@@V?$allocator@D@2@@std@@PAVFuzzySet@@U?$less@V?$basic_string@DU?$char_traits@D@std@@V?$allocator@D@2@@std@@@2@V?$allocator@U?$pair@$$CBV?$basic_string@DU?$char_traits@D@std@@V?$allocator@D@2@@std@@PAVFuzzySet@@@std@@@2@$0A@@std@@@std@@QBE?AV?$_Tree_const_iterator@V?$_Tree_val@U?$_Tree_simple_types@U?$pair@$$CBV?$basic_string@DU?$char_traits@D@std@@V?$allocator@D@2@@std@@PAVFuzzySet@@@std@@@std@@@std@@@2@XZ ; std::_Tree<std::_Tmap_traits<std::basic_string<char,std::char_traits<char>,std::allocator<char> >,FuzzySet *,std::less<std::basic_string<char,std::char_traits<char>,std::allocator<char> > >,std::allocator<std::pair<std::basic_string<char,std::char_traits<char>,std::allocator<char> > const ,FuzzySet *> >,0> >::end
PUBLIC	?size@?$_Tree@V?$_Tmap_traits@V?$basic_string@DU?$char_traits@D@std@@V?$allocator@D@2@@std@@PAVFuzzySet@@U?$less@V?$basic_string@DU?$char_traits@D@std@@V?$allocator@D@2@@std@@@2@V?$allocator@U?$pair@$$CBV?$basic_string@DU?$char_traits@D@std@@V?$allocator@D@2@@std@@PAVFuzzySet@@@std@@@2@$0A@@std@@@std@@QBEIXZ ; std::_Tree<std::_Tmap_traits<std::basic_string<char,std::char_traits<char>,std::allocator<char> >,FuzzySet *,std::less<std::basic_string<char,std::char_traits<char>,std::allocator<char> > >,std::allocator<std::pair<std::basic_string<char,std::char_traits<char>,std::allocator<char> > const ,FuzzySet *> >,0> >::size
PUBLIC	?max_size@?$_Tree@V?$_Tmap_traits@V?$basic_string@DU?$char_traits@D@std@@V?$allocator@D@2@@std@@PAVFuzzySet@@U?$less@V?$basic_string@DU?$char_traits@D@std@@V?$allocator@D@2@@std@@@2@V?$allocator@U?$pair@$$CBV?$basic_string@DU?$char_traits@D@std@@V?$allocator@D@2@@std@@PAVFuzzySet@@@std@@@2@$0A@@std@@@std@@QBEIXZ ; std::_Tree<std::_Tmap_traits<std::basic_string<char,std::char_traits<char>,std::allocator<char> >,FuzzySet *,std::less<std::basic_string<char,std::char_traits<char>,std::allocator<char> > >,std::allocator<std::pair<std::basic_string<char,std::char_traits<char>,std::allocator<char> > const ,FuzzySet *> >,0> >::max_size
PUBLIC	?erase@?$_Tree@V?$_Tmap_traits@V?$basic_string@DU?$char_traits@D@std@@V?$allocator@D@2@@std@@PAVFuzzySet@@U?$less@V?$basic_string@DU?$char_traits@D@std@@V?$allocator@D@2@@std@@@2@V?$allocator@U?$pair@$$CBV?$basic_string@DU?$char_traits@D@std@@V?$allocator@D@2@@std@@PAVFuzzySet@@@std@@@2@$0A@@std@@@std@@QAE?AV?$_Tree_iterator@V?$_Tree_val@U?$_Tree_simple_types@U?$pair@$$CBV?$basic_string@DU?$char_traits@D@std@@V?$allocator@D@2@@std@@PAVFuzzySet@@@std@@@std@@@std@@@2@V?$_Tree_const_iterator@V?$_Tree_val@U?$_Tree_simple_types@U?$pair@$$CBV?$basic_string@DU?$char_traits@D@std@@V?$allocator@D@2@@std@@PAVFuzzySet@@@std@@@std@@@std@@@2@@Z ; std::_Tree<std::_Tmap_traits<std::basic_string<char,std::char_traits<char>,std::allocator<char> >,FuzzySet *,std::less<std::basic_string<char,std::char_traits<char>,std::allocator<char> > >,std::allocator<std::pair<std::basic_string<char,std::char_traits<char>,std::allocator<char> > const ,FuzzySet *> >,0> >::erase
PUBLIC	?erase@?$_Tree@V?$_Tmap_traits@V?$basic_string@DU?$char_traits@D@std@@V?$allocator@D@2@@std@@PAVFuzzySet@@U?$less@V?$basic_string@DU?$char_traits@D@std@@V?$allocator@D@2@@std@@@2@V?$allocator@U?$pair@$$CBV?$basic_string@DU?$char_traits@D@std@@V?$allocator@D@2@@std@@PAVFuzzySet@@@std@@@2@$0A@@std@@@std@@QAE?AV?$_Tree_iterator@V?$_Tree_val@U?$_Tree_simple_types@U?$pair@$$CBV?$basic_string@DU?$char_traits@D@std@@V?$allocator@D@2@@std@@PAVFuzzySet@@@std@@@std@@@std@@@2@V?$_Tree_const_iterator@V?$_Tree_val@U?$_Tree_simple_types@U?$pair@$$CBV?$basic_string@DU?$char_traits@D@std@@V?$allocator@D@2@@std@@PAVFuzzySet@@@std@@@std@@@std@@@2@0@Z ; std::_Tree<std::_Tmap_traits<std::basic_string<char,std::char_traits<char>,std::allocator<char> >,FuzzySet *,std::less<std::basic_string<char,std::char_traits<char>,std::allocator<char> > >,std::allocator<std::pair<std::basic_string<char,std::char_traits<char>,std::allocator<char> > const ,FuzzySet *> >,0> >::erase
PUBLIC	?clear@?$_Tree@V?$_Tmap_traits@V?$basic_string@DU?$char_traits@D@std@@V?$allocator@D@2@@std@@PAVFuzzySet@@U?$less@V?$basic_string@DU?$char_traits@D@std@@V?$allocator@D@2@@std@@@2@V?$allocator@U?$pair@$$CBV?$basic_string@DU?$char_traits@D@std@@V?$allocator@D@2@@std@@PAVFuzzySet@@@std@@@2@$0A@@std@@@std@@QAEXXZ ; std::_Tree<std::_Tmap_traits<std::basic_string<char,std::char_traits<char>,std::allocator<char> >,FuzzySet *,std::less<std::basic_string<char,std::char_traits<char>,std::allocator<char> > >,std::allocator<std::pair<std::basic_string<char,std::char_traits<char>,std::allocator<char> > const ,FuzzySet *> >,0> >::clear
PUBLIC	?lower_bound@?$_Tree@V?$_Tmap_traits@V?$basic_string@DU?$char_traits@D@std@@V?$allocator@D@2@@std@@PAVFuzzySet@@U?$less@V?$basic_string@DU?$char_traits@D@std@@V?$allocator@D@2@@std@@@2@V?$allocator@U?$pair@$$CBV?$basic_string@DU?$char_traits@D@std@@V?$allocator@D@2@@std@@PAVFuzzySet@@@std@@@2@$0A@@std@@@std@@QAE?AV?$_Tree_iterator@V?$_Tree_val@U?$_Tree_simple_types@U?$pair@$$CBV?$basic_string@DU?$char_traits@D@std@@V?$allocator@D@2@@std@@PAVFuzzySet@@@std@@@std@@@std@@@2@ABV?$basic_string@DU?$char_traits@D@std@@V?$allocator@D@2@@2@@Z ; std::_Tree<std::_Tmap_traits<std::basic_string<char,std::char_traits<char>,std::allocator<char> >,FuzzySet *,std::less<std::basic_string<char,std::char_traits<char>,std::allocator<char> > >,std::allocator<std::pair<std::basic_string<char,std::char_traits<char>,std::allocator<char> > const ,FuzzySet *> >,0> >::lower_bound
PUBLIC	?_Destroy_if_node@?$_Tree@V?$_Tmap_traits@V?$basic_string@DU?$char_traits@D@std@@V?$allocator@D@2@@std@@PAVFuzzySet@@U?$less@V?$basic_string@DU?$char_traits@D@std@@V?$allocator@D@2@@std@@@2@V?$allocator@U?$pair@$$CBV?$basic_string@DU?$char_traits@D@std@@V?$allocator@D@2@@std@@PAVFuzzySet@@@std@@@2@$0A@@std@@@std@@IAEXPAU?$_Tree_node@U?$pair@$$CBV?$basic_string@DU?$char_traits@D@std@@V?$allocator@D@2@@std@@PAVFuzzySet@@@std@@PAX@2@@Z ; std::_Tree<std::_Tmap_traits<std::basic_string<char,std::char_traits<char>,std::allocator<char> >,FuzzySet *,std::less<std::basic_string<char,std::char_traits<char>,std::allocator<char> > >,std::allocator<std::pair<std::basic_string<char,std::char_traits<char>,std::allocator<char> > const ,FuzzySet *> >,0> >::_Destroy_if_node
PUBLIC	?_Erase@?$_Tree@V?$_Tmap_traits@V?$basic_string@DU?$char_traits@D@std@@V?$allocator@D@2@@std@@PAVFuzzySet@@U?$less@V?$basic_string@DU?$char_traits@D@std@@V?$allocator@D@2@@std@@@2@V?$allocator@U?$pair@$$CBV?$basic_string@DU?$char_traits@D@std@@V?$allocator@D@2@@std@@PAVFuzzySet@@@std@@@2@$0A@@std@@@std@@IAEXPAU?$_Tree_node@U?$pair@$$CBV?$basic_string@DU?$char_traits@D@std@@V?$allocator@D@2@@std@@PAVFuzzySet@@@std@@PAX@2@@Z ; std::_Tree<std::_Tmap_traits<std::basic_string<char,std::char_traits<char>,std::allocator<char> >,FuzzySet *,std::less<std::basic_string<char,std::char_traits<char>,std::allocator<char> > >,std::allocator<std::pair<std::basic_string<char,std::char_traits<char>,std::allocator<char> > const ,FuzzySet *> >,0> >::_Erase
PUBLIC	?_Compare@?$_Tree@V?$_Tmap_traits@V?$basic_string@DU?$char_traits@D@std@@V?$allocator@D@2@@std@@PAVFuzzySet@@U?$less@V?$basic_string@DU?$char_traits@D@std@@V?$allocator@D@2@@std@@@2@V?$allocator@U?$pair@$$CBV?$basic_string@DU?$char_traits@D@std@@V?$allocator@D@2@@std@@PAVFuzzySet@@@std@@@2@$0A@@std@@@std@@IBE_NABV?$basic_string@DU?$char_traits@D@std@@V?$allocator@D@2@@2@0@Z ; std::_Tree<std::_Tmap_traits<std::basic_string<char,std::char_traits<char>,std::allocator<char> >,FuzzySet *,std::less<std::basic_string<char,std::char_traits<char>,std::allocator<char> > >,std::allocator<std::pair<std::basic_string<char,std::char_traits<char>,std::allocator<char> > const ,FuzzySet *> >,0> >::_Compare
PUBLIC	?_Orphan_ptr@?$_Tree@V?$_Tmap_traits@V?$basic_string@DU?$char_traits@D@std@@V?$allocator@D@2@@std@@PAVFuzzySet@@U?$less@V?$basic_string@DU?$char_traits@D@std@@V?$allocator@D@2@@std@@@2@V?$allocator@U?$pair@$$CBV?$basic_string@DU?$char_traits@D@std@@V?$allocator@D@2@@std@@PAVFuzzySet@@@std@@@2@$0A@@std@@@std@@IAEXPAU?$_Tree_node@U?$pair@$$CBV?$basic_string@DU?$char_traits@D@std@@V?$allocator@D@2@@std@@PAVFuzzySet@@@std@@PAX@2@@Z ; std::_Tree<std::_Tmap_traits<std::basic_string<char,std::char_traits<char>,std::allocator<char> >,FuzzySet *,std::less<std::basic_string<char,std::char_traits<char>,std::allocator<char> > >,std::allocator<std::pair<std::basic_string<char,std::char_traits<char>,std::allocator<char> > const ,FuzzySet *> >,0> >::_Orphan_ptr
PUBLIC	?_Tidy@?$_Tree@V?$_Tmap_traits@V?$basic_string@DU?$char_traits@D@std@@V?$allocator@D@2@@std@@PAVFuzzySet@@U?$less@V?$basic_string@DU?$char_traits@D@std@@V?$allocator@D@2@@std@@@2@V?$allocator@U?$pair@$$CBV?$basic_string@DU?$char_traits@D@std@@V?$allocator@D@2@@std@@PAVFuzzySet@@@std@@@2@$0A@@std@@@std@@IAEXXZ ; std::_Tree<std::_Tmap_traits<std::basic_string<char,std::char_traits<char>,std::allocator<char> >,FuzzySet *,std::less<std::basic_string<char,std::char_traits<char>,std::allocator<char> > >,std::allocator<std::pair<std::basic_string<char,std::char_traits<char>,std::allocator<char> > const ,FuzzySet *> >,0> >::_Tidy
PUBLIC	?_Kfn@?$_Tree@V?$_Tmap_traits@V?$basic_string@DU?$char_traits@D@std@@V?$allocator@D@2@@std@@PAVFuzzySet@@U?$less@V?$basic_string@DU?$char_traits@D@std@@V?$allocator@D@2@@std@@@2@V?$allocator@U?$pair@$$CBV?$basic_string@DU?$char_traits@D@std@@V?$allocator@D@2@@std@@PAVFuzzySet@@@std@@@2@$0A@@std@@@std@@IBEABV?$basic_string@DU?$char_traits@D@std@@V?$allocator@D@2@@2@ABU?$pair@$$CBV?$basic_string@DU?$char_traits@D@std@@V?$allocator@D@2@@std@@PAVFuzzySet@@@2@@Z ; std::_Tree<std::_Tmap_traits<std::basic_string<char,std::char_traits<char>,std::allocator<char> >,FuzzySet *,std::less<std::basic_string<char,std::char_traits<char>,std::allocator<char> > >,std::allocator<std::pair<std::basic_string<char,std::char_traits<char>,std::allocator<char> > const ,FuzzySet *> >,0> >::_Kfn
PUBLIC	?_Key@?$_Tree@V?$_Tmap_traits@V?$basic_string@DU?$char_traits@D@std@@V?$allocator@D@2@@std@@PAVFuzzySet@@U?$less@V?$basic_string@DU?$char_traits@D@std@@V?$allocator@D@2@@std@@@2@V?$allocator@U?$pair@$$CBV?$basic_string@DU?$char_traits@D@std@@V?$allocator@D@2@@std@@PAVFuzzySet@@@std@@@2@$0A@@std@@@std@@IBEABV?$basic_string@DU?$char_traits@D@std@@V?$allocator@D@2@@2@PAU?$_Tree_node@U?$pair@$$CBV?$basic_string@DU?$char_traits@D@std@@V?$allocator@D@2@@std@@PAVFuzzySet@@@std@@PAX@2@@Z ; std::_Tree<std::_Tmap_traits<std::basic_string<char,std::char_traits<char>,std::allocator<char> >,FuzzySet *,std::less<std::basic_string<char,std::char_traits<char>,std::allocator<char> > >,std::allocator<std::pair<std::basic_string<char,std::char_traits<char>,std::allocator<char> > const ,FuzzySet *> >,0> >::_Key
PUBLIC	??A?$map@V?$basic_string@DU?$char_traits@D@std@@V?$allocator@D@2@@std@@PAVFuzzySet@@U?$less@V?$basic_string@DU?$char_traits@D@std@@V?$allocator@D@2@@std@@@2@V?$allocator@U?$pair@$$CBV?$basic_string@DU?$char_traits@D@std@@V?$allocator@D@2@@std@@PAVFuzzySet@@@std@@@2@@std@@QAEAAPAVFuzzySet@@ABV?$basic_string@DU?$char_traits@D@std@@V?$allocator@D@2@@1@@Z ; std::map<std::basic_string<char,std::char_traits<char>,std::allocator<char> >,FuzzySet *,std::less<std::basic_string<char,std::char_traits<char>,std::allocator<char> > >,std::allocator<std::pair<std::basic_string<char,std::char_traits<char>,std::allocator<char> > const ,FuzzySet *> > >::operator[]
PUBLIC	??1?$map@V?$basic_string@DU?$char_traits@D@std@@V?$allocator@D@2@@std@@PAVFuzzySet@@U?$less@V?$basic_string@DU?$char_traits@D@std@@V?$allocator@D@2@@std@@@2@V?$allocator@U?$pair@$$CBV?$basic_string@DU?$char_traits@D@std@@V?$allocator@D@2@@std@@PAVFuzzySet@@@std@@@2@@std@@QAE@XZ ; std::map<std::basic_string<char,std::char_traits<char>,std::allocator<char> >,FuzzySet *,std::less<std::basic_string<char,std::char_traits<char>,std::allocator<char> > >,std::allocator<std::pair<std::basic_string<char,std::char_traits<char>,std::allocator<char> > const ,FuzzySet *> > >::~map<std::basic_string<char,std::char_traits<char>,std::allocator<char> >,FuzzySet *,std::less<std::basic_string<char,std::char_traits<char>,std::allocator<char> > >,std::allocator<std::pair<std::basic_string<char,std::char_traits<char>,std::allocator<char> > const ,FuzzySet *> > >
PUBLIC	?AdjustRangeToFit@FuzzyVariable@@AAEXNN@Z	; FuzzyVariable::AdjustRangeToFit
PUBLIC	??1FuzzyVariable@@AAE@XZ			; FuzzyVariable::~FuzzyVariable
PUBLIC	?AddLeftShoulderSet@FuzzyVariable@@QAE?AVFzSet@@V?$basic_string@DU?$char_traits@D@std@@V?$allocator@D@2@@std@@NNN@Z ; FuzzyVariable::AddLeftShoulderSet
PUBLIC	?AddRightShoulderSet@FuzzyVariable@@QAE?AVFzSet@@V?$basic_string@DU?$char_traits@D@std@@V?$allocator@D@2@@std@@NNN@Z ; FuzzyVariable::AddRightShoulderSet
PUBLIC	?AddTriangularSet@FuzzyVariable@@QAE?AVFzSet@@V?$basic_string@DU?$char_traits@D@std@@V?$allocator@D@2@@std@@NNN@Z ; FuzzyVariable::AddTriangularSet
PUBLIC	?AddSingletonSet@FuzzyVariable@@QAE?AVFzSet@@V?$basic_string@DU?$char_traits@D@std@@V?$allocator@D@2@@std@@NNN@Z ; FuzzyVariable::AddSingletonSet
PUBLIC	?Fuzzify@FuzzyVariable@@QAEXN@Z			; FuzzyVariable::Fuzzify
PUBLIC	?DeFuzzifyMaxAv@FuzzyVariable@@QBENXZ		; FuzzyVariable::DeFuzzifyMaxAv
PUBLIC	?DeFuzzifyCentroid@FuzzyVariable@@QBENH@Z	; FuzzyVariable::DeFuzzifyCentroid
PUBLIC	?WriteDOMs@FuzzyVariable@@QAEAAV?$basic_ostream@DU?$char_traits@D@std@@@std@@AAV23@@Z ; FuzzyVariable::WriteDOMs
PUBLIC	?isEqual@@YA_NNN@Z				; isEqual
PUBLIC	??1FuzzyTerm@@UAE@XZ				; FuzzyTerm::~FuzzyTerm
PUBLIC	??0FuzzyTerm@@QAE@XZ				; FuzzyTerm::FuzzyTerm
PUBLIC	??0FuzzyTerm@@QAE@ABV0@@Z			; FuzzyTerm::FuzzyTerm
PUBLIC	??_GFuzzyTerm@@UAEPAXI@Z			; FuzzyTerm::`scalar deleting destructor'
PUBLIC	??0FuzzySet@@QAE@N@Z				; FuzzySet::FuzzySet
PUBLIC	?ORwithDOM@FuzzySet@@QAEXN@Z			; FuzzySet::ORwithDOM
PUBLIC	?GetRepresentativeVal@FuzzySet@@QBENXZ		; FuzzySet::GetRepresentativeVal
PUBLIC	?ClearDOM@FuzzySet@@QAEXXZ			; FuzzySet::ClearDOM
PUBLIC	?GetDOM@FuzzySet@@QBENXZ			; FuzzySet::GetDOM
PUBLIC	?SetDOM@FuzzySet@@QAEXN@Z			; FuzzySet::SetDOM
PUBLIC	??0FuzzySet_Triangle@@QAE@NNN@Z			; FuzzySet_Triangle::FuzzySet_Triangle
PUBLIC	??0FuzzySet_LeftShoulder@@QAE@NNN@Z		; FuzzySet_LeftShoulder::FuzzySet_LeftShoulder
PUBLIC	??0FuzzySet_RightShoulder@@QAE@NNN@Z		; FuzzySet_RightShoulder::FuzzySet_RightShoulder
PUBLIC	??0FuzzySet_Singleton@@QAE@NNN@Z		; FuzzySet_Singleton::FuzzySet_Singleton
PUBLIC	??0FzSet@@QAE@AAVFuzzySet@@@Z			; FzSet::FzSet
PUBLIC	?Clone@FzSet@@UBEPAVFuzzyTerm@@XZ		; FzSet::Clone
PUBLIC	?GetDOM@FzSet@@UBENXZ				; FzSet::GetDOM
PUBLIC	?ClearDOM@FzSet@@UAEXXZ				; FzSet::ClearDOM
PUBLIC	?ORwithDOM@FzSet@@UAEXN@Z			; FzSet::ORwithDOM
PUBLIC	??1FzSet@@UAE@XZ				; FzSet::~FzSet
PUBLIC	??0FzSet@@QAE@ABV0@@Z				; FzSet::FzSet
PUBLIC	??_GFzSet@@UAEPAXI@Z				; FzSet::`scalar deleting destructor'
PUBLIC	??0?$_Tree_unchecked_const_iterator@V?$_Tree_val@U?$_Tree_simple_types@U?$pair@$$CBV?$basic_string@DU?$char_traits@D@std@@V?$allocator@D@2@@std@@PAVFuzzySet@@@std@@@std@@@std@@U_Iterator_base12@2@@std@@QAE@XZ ; std::_Tree_unchecked_const_iterator<std::_Tree_val<std::_Tree_simple_types<std::pair<std::basic_string<char,std::char_traits<char>,std::allocator<char> > const ,FuzzySet *> > >,std::_Iterator_base12>::_Tree_unchecked_const_iterator<std::_Tree_val<std::_Tree_simple_types<std::pair<std::basic_string<char,std::char_traits<char>,std::allocator<char> > const ,FuzzySet *> > >,std::_Iterator_base12>
PUBLIC	??0?$_Tree_unchecked_const_iterator@V?$_Tree_val@U?$_Tree_simple_types@U?$pair@$$CBV?$basic_string@DU?$char_traits@D@std@@V?$allocator@D@2@@std@@PAVFuzzySet@@@std@@@std@@@std@@U_Iterator_base12@2@@std@@QAE@PAU?$_Tree_node@U?$pair@$$CBV?$basic_string@DU?$char_traits@D@std@@V?$allocator@D@2@@std@@PAVFuzzySet@@@std@@PAX@1@PBV?$_Tree_val@U?$_Tree_simple_types@U?$pair@$$CBV?$basic_string@DU?$char_traits@D@std@@V?$allocator@D@2@@std@@PAVFuzzySet@@@std@@@std@@@1@@Z ; std::_Tree_unchecked_const_iterator<std::_Tree_val<std::_Tree_simple_types<std::pair<std::basic_string<char,std::char_traits<char>,std::allocator<char> > const ,FuzzySet *> > >,std::_Iterator_base12>::_Tree_unchecked_const_iterator<std::_Tree_val<std::_Tree_simple_types<std::pair<std::basic_string<char,std::char_traits<char>,std::allocator<char> > const ,FuzzySet *> > >,std::_Iterator_base12>
PUBLIC	??E?$_Tree_unchecked_const_iterator@V?$_Tree_val@U?$_Tree_simple_types@U?$pair@$$CBV?$basic_string@DU?$char_traits@D@std@@V?$allocator@D@2@@std@@PAVFuzzySet@@@std@@@std@@@std@@U_Iterator_base12@2@@std@@QAEAAV01@XZ ; std::_Tree_unchecked_const_iterator<std::_Tree_val<std::_Tree_simple_types<std::pair<std::basic_string<char,std::char_traits<char>,std::allocator<char> > const ,FuzzySet *> > >,std::_Iterator_base12>::operator++
PUBLIC	??F?$_Tree_unchecked_const_iterator@V?$_Tree_val@U?$_Tree_simple_types@U?$pair@$$CBV?$basic_string@DU?$char_traits@D@std@@V?$allocator@D@2@@std@@PAVFuzzySet@@@std@@@std@@@std@@U_Iterator_base12@2@@std@@QAEAAV01@XZ ; std::_Tree_unchecked_const_iterator<std::_Tree_val<std::_Tree_simple_types<std::pair<std::basic_string<char,std::char_traits<char>,std::allocator<char> > const ,FuzzySet *> > >,std::_Iterator_base12>::operator--
PUBLIC	??1?$_Tree_unchecked_const_iterator@V?$_Tree_val@U?$_Tree_simple_types@U?$pair@$$CBV?$basic_string@DU?$char_traits@D@std@@V?$allocator@D@2@@std@@PAVFuzzySet@@@std@@@std@@@std@@U_Iterator_base12@2@@std@@QAE@XZ ; std::_Tree_unchecked_const_iterator<std::_Tree_val<std::_Tree_simple_types<std::pair<std::basic_string<char,std::char_traits<char>,std::allocator<char> > const ,FuzzySet *> > >,std::_Iterator_base12>::~_Tree_unchecked_const_iterator<std::_Tree_val<std::_Tree_simple_types<std::pair<std::basic_string<char,std::char_traits<char>,std::allocator<char> > const ,FuzzySet *> > >,std::_Iterator_base12>
PUBLIC	??0?$_Tree_unchecked_const_iterator@V?$_Tree_val@U?$_Tree_simple_types@U?$pair@$$CBV?$basic_string@DU?$char_traits@D@std@@V?$allocator@D@2@@std@@PAVFuzzySet@@@std@@@std@@@std@@U_Iterator_base12@2@@std@@QAE@ABV01@@Z ; std::_Tree_unchecked_const_iterator<std::_Tree_val<std::_Tree_simple_types<std::pair<std::basic_string<char,std::char_traits<char>,std::allocator<char> > const ,FuzzySet *> > >,std::_Iterator_base12>::_Tree_unchecked_const_iterator<std::_Tree_val<std::_Tree_simple_types<std::pair<std::basic_string<char,std::char_traits<char>,std::allocator<char> > const ,FuzzySet *> > >,std::_Iterator_base12>
PUBLIC	??0?$_Tree_unchecked_const_iterator@V?$_Tree_val@U?$_Tree_simple_types@U?$pair@$$CBV?$basic_string@DU?$char_traits@D@std@@V?$allocator@D@2@@std@@PAVFuzzySet@@@std@@@std@@@std@@U_Iterator_base12@2@@std@@QAE@$$QAV01@@Z ; std::_Tree_unchecked_const_iterator<std::_Tree_val<std::_Tree_simple_types<std::pair<std::basic_string<char,std::char_traits<char>,std::allocator<char> > const ,FuzzySet *> > >,std::_Iterator_base12>::_Tree_unchecked_const_iterator<std::_Tree_val<std::_Tree_simple_types<std::pair<std::basic_string<char,std::char_traits<char>,std::allocator<char> > const ,FuzzySet *> > >,std::_Iterator_base12>
PUBLIC	??4?$_Tree_unchecked_const_iterator@V?$_Tree_val@U?$_Tree_simple_types@U?$pair@$$CBV?$basic_string@DU?$char_traits@D@std@@V?$allocator@D@2@@std@@PAVFuzzySet@@@std@@@std@@@std@@U_Iterator_base12@2@@std@@QAEAAV01@ABV01@@Z ; std::_Tree_unchecked_const_iterator<std::_Tree_val<std::_Tree_simple_types<std::pair<std::basic_string<char,std::char_traits<char>,std::allocator<char> > const ,FuzzySet *> > >,std::_Iterator_base12>::operator=
PUBLIC	??4?$_Tree_unchecked_const_iterator@V?$_Tree_val@U?$_Tree_simple_types@U?$pair@$$CBV?$basic_string@DU?$char_traits@D@std@@V?$allocator@D@2@@std@@PAVFuzzySet@@@std@@@std@@@std@@U_Iterator_base12@2@@std@@QAEAAV01@$$QAV01@@Z ; std::_Tree_unchecked_const_iterator<std::_Tree_val<std::_Tree_simple_types<std::pair<std::basic_string<char,std::char_traits<char>,std::allocator<char> > const ,FuzzySet *> > >,std::_Iterator_base12>::operator=
PUBLIC	??0?$_Tree_const_iterator@V?$_Tree_val@U?$_Tree_simple_types@U?$pair@$$CBV?$basic_string@DU?$char_traits@D@std@@V?$allocator@D@2@@std@@PAVFuzzySet@@@std@@@std@@@std@@@std@@QAE@XZ ; std::_Tree_const_iterator<std::_Tree_val<std::_Tree_simple_types<std::pair<std::basic_string<char,std::char_traits<char>,std::allocator<char> > const ,FuzzySet *> > > >::_Tree_const_iterator<std::_Tree_val<std::_Tree_simple_types<std::pair<std::basic_string<char,std::char_traits<char>,std::allocator<char> > const ,FuzzySet *> > > >
PUBLIC	??0?$_Tree_const_iterator@V?$_Tree_val@U?$_Tree_simple_types@U?$pair@$$CBV?$basic_string@DU?$char_traits@D@std@@V?$allocator@D@2@@std@@PAVFuzzySet@@@std@@@std@@@std@@@std@@QAE@PAU?$_Tree_node@U?$pair@$$CBV?$basic_string@DU?$char_traits@D@std@@V?$allocator@D@2@@std@@PAVFuzzySet@@@std@@PAX@1@PBV?$_Tree_val@U?$_Tree_simple_types@U?$pair@$$CBV?$basic_string@DU?$char_traits@D@std@@V?$allocator@D@2@@std@@PAVFuzzySet@@@std@@@std@@@1@@Z ; std::_Tree_const_iterator<std::_Tree_val<std::_Tree_simple_types<std::pair<std::basic_string<char,std::char_traits<char>,std::allocator<char> > const ,FuzzySet *> > > >::_Tree_const_iterator<std::_Tree_val<std::_Tree_simple_types<std::pair<std::basic_string<char,std::char_traits<char>,std::allocator<char> > const ,FuzzySet *> > > >
PUBLIC	??D?$_Tree_const_iterator@V?$_Tree_val@U?$_Tree_simple_types@U?$pair@$$CBV?$basic_string@DU?$char_traits@D@std@@V?$allocator@D@2@@std@@PAVFuzzySet@@@std@@@std@@@std@@@std@@QBEABU?$pair@$$CBV?$basic_string@DU?$char_traits@D@std@@V?$allocator@D@2@@std@@PAVFuzzySet@@@1@XZ ; std::_Tree_const_iterator<std::_Tree_val<std::_Tree_simple_types<std::pair<std::basic_string<char,std::char_traits<char>,std::allocator<char> > const ,FuzzySet *> > > >::operator*
PUBLIC	??C?$_Tree_const_iterator@V?$_Tree_val@U?$_Tree_simple_types@U?$pair@$$CBV?$basic_string@DU?$char_traits@D@std@@V?$allocator@D@2@@std@@PAVFuzzySet@@@std@@@std@@@std@@@std@@QBEPBU?$pair@$$CBV?$basic_string@DU?$char_traits@D@std@@V?$allocator@D@2@@std@@PAVFuzzySet@@@1@XZ ; std::_Tree_const_iterator<std::_Tree_val<std::_Tree_simple_types<std::pair<std::basic_string<char,std::char_traits<char>,std::allocator<char> > const ,FuzzySet *> > > >::operator->
PUBLIC	??E?$_Tree_const_iterator@V?$_Tree_val@U?$_Tree_simple_types@U?$pair@$$CBV?$basic_string@DU?$char_traits@D@std@@V?$allocator@D@2@@std@@PAVFuzzySet@@@std@@@std@@@std@@@std@@QAEAAV01@XZ ; std::_Tree_const_iterator<std::_Tree_val<std::_Tree_simple_types<std::pair<std::basic_string<char,std::char_traits<char>,std::allocator<char> > const ,FuzzySet *> > > >::operator++
PUBLIC	??E?$_Tree_const_iterator@V?$_Tree_val@U?$_Tree_simple_types@U?$pair@$$CBV?$basic_string@DU?$char_traits@D@std@@V?$allocator@D@2@@std@@PAVFuzzySet@@@std@@@std@@@std@@@std@@QAE?AV01@H@Z ; std::_Tree_const_iterator<std::_Tree_val<std::_Tree_simple_types<std::pair<std::basic_string<char,std::char_traits<char>,std::allocator<char> > const ,FuzzySet *> > > >::operator++
PUBLIC	??F?$_Tree_const_iterator@V?$_Tree_val@U?$_Tree_simple_types@U?$pair@$$CBV?$basic_string@DU?$char_traits@D@std@@V?$allocator@D@2@@std@@PAVFuzzySet@@@std@@@std@@@std@@@std@@QAEAAV01@XZ ; std::_Tree_const_iterator<std::_Tree_val<std::_Tree_simple_types<std::pair<std::basic_string<char,std::char_traits<char>,std::allocator<char> > const ,FuzzySet *> > > >::operator--
PUBLIC	??8?$_Tree_const_iterator@V?$_Tree_val@U?$_Tree_simple_types@U?$pair@$$CBV?$basic_string@DU?$char_traits@D@std@@V?$allocator@D@2@@std@@PAVFuzzySet@@@std@@@std@@@std@@@std@@QBE_NABV01@@Z ; std::_Tree_const_iterator<std::_Tree_val<std::_Tree_simple_types<std::pair<std::basic_string<char,std::char_traits<char>,std::allocator<char> > const ,FuzzySet *> > > >::operator==
PUBLIC	??9?$_Tree_const_iterator@V?$_Tree_val@U?$_Tree_simple_types@U?$pair@$$CBV?$basic_string@DU?$char_traits@D@std@@V?$allocator@D@2@@std@@PAVFuzzySet@@@std@@@std@@@std@@@std@@QBE_NABV01@@Z ; std::_Tree_const_iterator<std::_Tree_val<std::_Tree_simple_types<std::pair<std::basic_string<char,std::char_traits<char>,std::allocator<char> > const ,FuzzySet *> > > >::operator!=
PUBLIC	??1?$_Tree_const_iterator@V?$_Tree_val@U?$_Tree_simple_types@U?$pair@$$CBV?$basic_string@DU?$char_traits@D@std@@V?$allocator@D@2@@std@@PAVFuzzySet@@@std@@@std@@@std@@@std@@QAE@XZ ; std::_Tree_const_iterator<std::_Tree_val<std::_Tree_simple_types<std::pair<std::basic_string<char,std::char_traits<char>,std::allocator<char> > const ,FuzzySet *> > > >::~_Tree_const_iterator<std::_Tree_val<std::_Tree_simple_types<std::pair<std::basic_string<char,std::char_traits<char>,std::allocator<char> > const ,FuzzySet *> > > >
PUBLIC	??0?$_Tree_const_iterator@V?$_Tree_val@U?$_Tree_simple_types@U?$pair@$$CBV?$basic_string@DU?$char_traits@D@std@@V?$allocator@D@2@@std@@PAVFuzzySet@@@std@@@std@@@std@@@std@@QAE@ABV01@@Z ; std::_Tree_const_iterator<std::_Tree_val<std::_Tree_simple_types<std::pair<std::basic_string<char,std::char_traits<char>,std::allocator<char> > const ,FuzzySet *> > > >::_Tree_const_iterator<std::_Tree_val<std::_Tree_simple_types<std::pair<std::basic_string<char,std::char_traits<char>,std::allocator<char> > const ,FuzzySet *> > > >
PUBLIC	??0?$_Tree_const_iterator@V?$_Tree_val@U?$_Tree_simple_types@U?$pair@$$CBV?$basic_string@DU?$char_traits@D@std@@V?$allocator@D@2@@std@@PAVFuzzySet@@@std@@@std@@@std@@@std@@QAE@$$QAV01@@Z ; std::_Tree_const_iterator<std::_Tree_val<std::_Tree_simple_types<std::pair<std::basic_string<char,std::char_traits<char>,std::allocator<char> > const ,FuzzySet *> > > >::_Tree_const_iterator<std::_Tree_val<std::_Tree_simple_types<std::pair<std::basic_string<char,std::char_traits<char>,std::allocator<char> > const ,FuzzySet *> > > >
PUBLIC	??4?$_Tree_const_iterator@V?$_Tree_val@U?$_Tree_simple_types@U?$pair@$$CBV?$basic_string@DU?$char_traits@D@std@@V?$allocator@D@2@@std@@PAVFuzzySet@@@std@@@std@@@std@@@std@@QAEAAV01@ABV01@@Z ; std::_Tree_const_iterator<std::_Tree_val<std::_Tree_simple_types<std::pair<std::basic_string<char,std::char_traits<char>,std::allocator<char> > const ,FuzzySet *> > > >::operator=
PUBLIC	??4?$_Tree_const_iterator@V?$_Tree_val@U?$_Tree_simple_types@U?$pair@$$CBV?$basic_string@DU?$char_traits@D@std@@V?$allocator@D@2@@std@@PAVFuzzySet@@@std@@@std@@@std@@@std@@QAEAAV01@$$QAV01@@Z ; std::_Tree_const_iterator<std::_Tree_val<std::_Tree_simple_types<std::pair<std::basic_string<char,std::char_traits<char>,std::allocator<char> > const ,FuzzySet *> > > >::operator=
PUBLIC	??0?$_Tree_iterator@V?$_Tree_val@U?$_Tree_simple_types@U?$pair@$$CBV?$basic_string@DU?$char_traits@D@std@@V?$allocator@D@2@@std@@PAVFuzzySet@@@std@@@std@@@std@@@std@@QAE@XZ ; std::_Tree_iterator<std::_Tree_val<std::_Tree_simple_types<std::pair<std::basic_string<char,std::char_traits<char>,std::allocator<char> > const ,FuzzySet *> > > >::_Tree_iterator<std::_Tree_val<std::_Tree_simple_types<std::pair<std::basic_string<char,std::char_traits<char>,std::allocator<char> > const ,FuzzySet *> > > >
PUBLIC	??0?$_Tree_iterator@V?$_Tree_val@U?$_Tree_simple_types@U?$pair@$$CBV?$basic_string@DU?$char_traits@D@std@@V?$allocator@D@2@@std@@PAVFuzzySet@@@std@@@std@@@std@@@std@@QAE@PAU?$_Tree_node@U?$pair@$$CBV?$basic_string@DU?$char_traits@D@std@@V?$allocator@D@2@@std@@PAVFuzzySet@@@std@@PAX@1@PBV?$_Tree_val@U?$_Tree_simple_types@U?$pair@$$CBV?$basic_string@DU?$char_traits@D@std@@V?$allocator@D@2@@std@@PAVFuzzySet@@@std@@@std@@@1@@Z ; std::_Tree_iterator<std::_Tree_val<std::_Tree_simple_types<std::pair<std::basic_string<char,std::char_traits<char>,std::allocator<char> > const ,FuzzySet *> > > >::_Tree_iterator<std::_Tree_val<std::_Tree_simple_types<std::pair<std::basic_string<char,std::char_traits<char>,std::allocator<char> > const ,FuzzySet *> > > >
PUBLIC	??D?$_Tree_iterator@V?$_Tree_val@U?$_Tree_simple_types@U?$pair@$$CBV?$basic_string@DU?$char_traits@D@std@@V?$allocator@D@2@@std@@PAVFuzzySet@@@std@@@std@@@std@@@std@@QBEAAU?$pair@$$CBV?$basic_string@DU?$char_traits@D@std@@V?$allocator@D@2@@std@@PAVFuzzySet@@@1@XZ ; std::_Tree_iterator<std::_Tree_val<std::_Tree_simple_types<std::pair<std::basic_string<char,std::char_traits<char>,std::allocator<char> > const ,FuzzySet *> > > >::operator*
PUBLIC	??C?$_Tree_iterator@V?$_Tree_val@U?$_Tree_simple_types@U?$pair@$$CBV?$basic_string@DU?$char_traits@D@std@@V?$allocator@D@2@@std@@PAVFuzzySet@@@std@@@std@@@std@@@std@@QBEPAU?$pair@$$CBV?$basic_string@DU?$char_traits@D@std@@V?$allocator@D@2@@std@@PAVFuzzySet@@@1@XZ ; std::_Tree_iterator<std::_Tree_val<std::_Tree_simple_types<std::pair<std::basic_string<char,std::char_traits<char>,std::allocator<char> > const ,FuzzySet *> > > >::operator->
PUBLIC	??E?$_Tree_iterator@V?$_Tree_val@U?$_Tree_simple_types@U?$pair@$$CBV?$basic_string@DU?$char_traits@D@std@@V?$allocator@D@2@@std@@PAVFuzzySet@@@std@@@std@@@std@@@std@@QAEAAV01@XZ ; std::_Tree_iterator<std::_Tree_val<std::_Tree_simple_types<std::pair<std::basic_string<char,std::char_traits<char>,std::allocator<char> > const ,FuzzySet *> > > >::operator++
PUBLIC	??F?$_Tree_iterator@V?$_Tree_val@U?$_Tree_simple_types@U?$pair@$$CBV?$basic_string@DU?$char_traits@D@std@@V?$allocator@D@2@@std@@PAVFuzzySet@@@std@@@std@@@std@@@std@@QAEAAV01@XZ ; std::_Tree_iterator<std::_Tree_val<std::_Tree_simple_types<std::pair<std::basic_string<char,std::char_traits<char>,std::allocator<char> > const ,FuzzySet *> > > >::operator--
PUBLIC	??1?$_Tree_iterator@V?$_Tree_val@U?$_Tree_simple_types@U?$pair@$$CBV?$basic_string@DU?$char_traits@D@std@@V?$allocator@D@2@@std@@PAVFuzzySet@@@std@@@std@@@std@@@std@@QAE@XZ ; std::_Tree_iterator<std::_Tree_val<std::_Tree_simple_types<std::pair<std::basic_string<char,std::char_traits<char>,std::allocator<char> > const ,FuzzySet *> > > >::~_Tree_iterator<std::_Tree_val<std::_Tree_simple_types<std::pair<std::basic_string<char,std::char_traits<char>,std::allocator<char> > const ,FuzzySet *> > > >
PUBLIC	??0?$_Tree_iterator@V?$_Tree_val@U?$_Tree_simple_types@U?$pair@$$CBV?$basic_string@DU?$char_traits@D@std@@V?$allocator@D@2@@std@@PAVFuzzySet@@@std@@@std@@@std@@@std@@QAE@ABV01@@Z ; std::_Tree_iterator<std::_Tree_val<std::_Tree_simple_types<std::pair<std::basic_string<char,std::char_traits<char>,std::allocator<char> > const ,FuzzySet *> > > >::_Tree_iterator<std::_Tree_val<std::_Tree_simple_types<std::pair<std::basic_string<char,std::char_traits<char>,std::allocator<char> > const ,FuzzySet *> > > >
PUBLIC	??0?$_Tree_iterator@V?$_Tree_val@U?$_Tree_simple_types@U?$pair@$$CBV?$basic_string@DU?$char_traits@D@std@@V?$allocator@D@2@@std@@PAVFuzzySet@@@std@@@std@@@std@@@std@@QAE@$$QAV01@@Z ; std::_Tree_iterator<std::_Tree_val<std::_Tree_simple_types<std::pair<std::basic_string<char,std::char_traits<char>,std::allocator<char> > const ,FuzzySet *> > > >::_Tree_iterator<std::_Tree_val<std::_Tree_simple_types<std::pair<std::basic_string<char,std::char_traits<char>,std::allocator<char> > const ,FuzzySet *> > > >
PUBLIC	??4?$_Tree_iterator@V?$_Tree_val@U?$_Tree_simple_types@U?$pair@$$CBV?$basic_string@DU?$char_traits@D@std@@V?$allocator@D@2@@std@@PAVFuzzySet@@@std@@@std@@@std@@@std@@QAEAAV01@$$QAV01@@Z ; std::_Tree_iterator<std::_Tree_val<std::_Tree_simple_types<std::pair<std::basic_string<char,std::char_traits<char>,std::allocator<char> > const ,FuzzySet *> > > >::operator=
PUBLIC	??1?$pair@$$CBV?$basic_string@DU?$char_traits@D@std@@V?$allocator@D@2@@std@@PAVFuzzySet@@@std@@QAE@XZ ; std::pair<std::basic_string<char,std::char_traits<char>,std::allocator<char> > const ,FuzzySet *>::~pair<std::basic_string<char,std::char_traits<char>,std::allocator<char> > const ,FuzzySet *>
PUBLIC	??_G?$pair@$$CBV?$basic_string@DU?$char_traits@D@std@@V?$allocator@D@2@@std@@PAVFuzzySet@@@std@@QAEPAXI@Z ; std::pair<std::basic_string<char,std::char_traits<char>,std::allocator<char> > const ,FuzzySet *>::`scalar deleting destructor'
PUBLIC	??$MinOf@N@@YANABN0@Z				; MinOf<double>
PUBLIC	?clear@?$basic_ios@DU?$char_traits@D@std@@@std@@QAEXH_N@Z ; std::basic_ios<char,std::char_traits<char> >::clear
PUBLIC	?setstate@?$basic_ios@DU?$char_traits@D@std@@@std@@QAEXH_N@Z ; std::basic_ios<char,std::char_traits<char> >::setstate
PUBLIC	?tie@?$basic_ios@DU?$char_traits@D@std@@@std@@QBEPAV?$basic_ostream@DU?$char_traits@D@std@@@2@XZ ; std::basic_ios<char,std::char_traits<char> >::tie
PUBLIC	?rdbuf@?$basic_ios@DU?$char_traits@D@std@@@std@@QBEPAV?$basic_streambuf@DU?$char_traits@D@std@@@2@XZ ; std::basic_ios<char,std::char_traits<char> >::rdbuf
PUBLIC	?fill@?$basic_ios@DU?$char_traits@D@std@@@std@@QBEDXZ ; std::basic_ios<char,std::char_traits<char> >::fill
PUBLIC	?_Osfx@?$basic_ostream@DU?$char_traits@D@std@@@std@@QAEXXZ ; std::basic_ostream<char,std::char_traits<char> >::_Osfx
PUBLIC	??6?$basic_ostream@DU?$char_traits@D@std@@@std@@QAEAAV01@N@Z ; std::basic_ostream<char,std::char_traits<char> >::operator<<
PUBLIC	?flush@?$basic_ostream@DU?$char_traits@D@std@@@std@@QAEAAV12@XZ ; std::basic_ostream<char,std::char_traits<char> >::flush
PUBLIC	??$?6U?$char_traits@D@std@@@std@@YAAAV?$basic_ostream@DU?$char_traits@D@std@@@0@AAV10@PBD@Z ; std::operator<<<std::char_traits<char> >
PUBLIC	??$?6DU?$char_traits@D@std@@V?$allocator@D@1@@std@@YAAAV?$basic_ostream@DU?$char_traits@D@std@@@0@AAV10@ABV?$basic_string@DU?$char_traits@D@std@@V?$allocator@D@2@@0@@Z ; std::operator<<<char,std::char_traits<char>,std::allocator<char> >
PUBLIC	?pointer_to@?$pointer_traits@PBU?$pair@$$CBV?$basic_string@DU?$char_traits@D@std@@V?$allocator@D@2@@std@@PAVFuzzySet@@@std@@@std@@SAPBU?$pair@$$CBV?$basic_string@DU?$char_traits@D@std@@V?$allocator@D@2@@std@@PAVFuzzySet@@@2@ABU32@@Z ; std::pointer_traits<std::pair<std::basic_string<char,std::char_traits<char>,std::allocator<char> > const ,FuzzySet *> const *>::pointer_to
PUBLIC	?pointer_to@?$pointer_traits@PAU?$pair@$$CBV?$basic_string@DU?$char_traits@D@std@@V?$allocator@D@2@@std@@PAVFuzzySet@@@std@@@std@@SAPAU?$pair@$$CBV?$basic_string@DU?$char_traits@D@std@@V?$allocator@D@2@@std@@PAVFuzzySet@@@2@AAU32@@Z ; std::pointer_traits<std::pair<std::basic_string<char,std::char_traits<char>,std::allocator<char> > const ,FuzzySet *> *>::pointer_to
PUBLIC	??$addressof@$$CBV?$_Tree_val@U?$_Tree_simple_types@U?$pair@$$CBV?$basic_string@DU?$char_traits@D@std@@V?$allocator@D@2@@std@@PAVFuzzySet@@@std@@@std@@@std@@@std@@YAPBV?$_Tree_val@U?$_Tree_simple_types@U?$pair@$$CBV?$basic_string@DU?$char_traits@D@std@@V?$allocator@D@2@@std@@PAVFuzzySet@@@std@@@std@@@0@ABV10@@Z ; std::addressof<std::_Tree_val<std::_Tree_simple_types<std::pair<std::basic_string<char,std::char_traits<char>,std::allocator<char> > const ,FuzzySet *> > > const >
PUBLIC	??$addressof@V?$_Tree_val@U?$_Tree_simple_types@U?$pair@$$CBV?$basic_string@DU?$char_traits@D@std@@V?$allocator@D@2@@std@@PAVFuzzySet@@@std@@@std@@@std@@@std@@YAPAV?$_Tree_val@U?$_Tree_simple_types@U?$pair@$$CBV?$basic_string@DU?$char_traits@D@std@@V?$allocator@D@2@@std@@PAVFuzzySet@@@std@@@std@@@0@AAV10@@Z ; std::addressof<std::_Tree_val<std::_Tree_simple_types<std::pair<std::basic_string<char,std::char_traits<char>,std::allocator<char> > const ,FuzzySet *> > > >
PUBLIC	??$try_emplace@$$V@?$map@V?$basic_string@DU?$char_traits@D@std@@V?$allocator@D@2@@std@@PAVFuzzySet@@U?$less@V?$basic_string@DU?$char_traits@D@std@@V?$allocator@D@2@@std@@@2@V?$allocator@U?$pair@$$CBV?$basic_string@DU?$char_traits@D@std@@V?$allocator@D@2@@std@@PAVFuzzySet@@@std@@@2@@std@@QAE?AU?$pair@V?$_Tree_iterator@V?$_Tree_val@U?$_Tree_simple_types@U?$pair@$$CBV?$basic_string@DU?$char_traits@D@std@@V?$allocator@D@2@@std@@PAVFuzzySet@@@std@@@std@@@std@@@std@@_N@1@ABV?$basic_string@DU?$char_traits@D@std@@V?$allocator@D@2@@1@@Z ; std::map<std::basic_string<char,std::char_traits<char>,std::allocator<char> >,FuzzySet *,std::less<std::basic_string<char,std::char_traits<char>,std::allocator<char> > >,std::allocator<std::pair<std::basic_string<char,std::char_traits<char>,std::allocator<char> > const ,FuzzySet *> > >::try_emplace<>
PUBLIC	??1?$pair@V?$_Tree_iterator@V?$_Tree_val@U?$_Tree_simple_types@U?$pair@$$CBV?$basic_string@DU?$char_traits@D@std@@V?$allocator@D@2@@std@@PAVFuzzySet@@@std@@@std@@@std@@@std@@_N@std@@QAE@XZ ; std::pair<std::_Tree_iterator<std::_Tree_val<std::_Tree_simple_types<std::pair<std::basic_string<char,std::char_traits<char>,std::allocator<char> > const ,FuzzySet *> > > >,bool>::~pair<std::_Tree_iterator<std::_Tree_val<std::_Tree_simple_types<std::pair<std::basic_string<char,std::char_traits<char>,std::allocator<char> > const ,FuzzySet *> > > >,bool>
PUBLIC	??$_Traits_compare@U?$char_traits@D@std@@@std@@YAHQBDI0I@Z ; std::_Traits_compare<std::char_traits<char> >
PUBLIC	??$_Min_value@I@std@@YAABIABI0@Z		; std::_Min_value<unsigned int>
PUBLIC	??$_Unfancy@D@std@@YAPADPAD@Z			; std::_Unfancy<char>
PUBLIC	??$move@AAV?$allocator@D@std@@@std@@YA$$QAV?$allocator@D@0@AAV10@@Z ; std::move<std::allocator<char> &>
PUBLIC	??$?0V?$allocator@D@std@@X@?$_String_alloc@U?$_String_base_types@DV?$allocator@D@std@@@std@@@std@@QAE@$$QAV?$allocator@D@1@@Z ; std::_String_alloc<std::_String_base_types<char,std::allocator<char> > >::_String_alloc<std::_String_base_types<char,std::allocator<char> > ><std::allocator<char>,void>
PUBLIC	??$move@AAV?$basic_string@DU?$char_traits@D@std@@V?$allocator@D@2@@std@@@std@@YA$$QAV?$basic_string@DU?$char_traits@D@std@@V?$allocator@D@2@@0@AAV10@@Z ; std::move<std::basic_string<char,std::char_traits<char>,std::allocator<char> > &>
PUBLIC	??0_Sentry_base@?$basic_ostream@DU?$char_traits@D@std@@@std@@QAE@AAV12@@Z ; std::basic_ostream<char,std::char_traits<char> >::_Sentry_base::_Sentry_base
PUBLIC	??1_Sentry_base@?$basic_ostream@DU?$char_traits@D@std@@@std@@QAE@XZ ; std::basic_ostream<char,std::char_traits<char> >::_Sentry_base::~_Sentry_base
PUBLIC	??0sentry@?$basic_ostream@DU?$char_traits@D@std@@@std@@QAE@AAV12@@Z ; std::basic_ostream<char,std::char_traits<char> >::sentry::sentry
PUBLIC	??1sentry@?$basic_ostream@DU?$char_traits@D@std@@@std@@QAE@XZ ; std::basic_ostream<char,std::char_traits<char> >::sentry::~sentry
PUBLIC	??Bsentry@?$basic_ostream@DU?$char_traits@D@std@@@std@@QBE_NXZ ; std::basic_ostream<char,std::char_traits<char> >::sentry::operator bool
PUBLIC	??$use_facet@V?$num_put@DV?$ostreambuf_iterator@DU?$char_traits@D@std@@@std@@@std@@@std@@YAABV?$num_put@DV?$ostreambuf_iterator@DU?$char_traits@D@std@@@std@@@0@ABVlocale@0@@Z ; std::use_facet<std::num_put<char,std::ostreambuf_iterator<char,std::char_traits<char> > > >
PUBLIC	?_Getcat@?$num_put@DV?$ostreambuf_iterator@DU?$char_traits@D@std@@@std@@@std@@SAIPAPBVfacet@locale@2@PBV42@@Z ; std::num_put<char,std::ostreambuf_iterator<char,std::char_traits<char> > >::_Getcat
PUBLIC	??1?$num_put@DV?$ostreambuf_iterator@DU?$char_traits@D@std@@@std@@@std@@MAE@XZ ; std::num_put<char,std::ostreambuf_iterator<char,std::char_traits<char> > >::~num_put<char,std::ostreambuf_iterator<char,std::char_traits<char> > >
PUBLIC	?_Init@?$num_put@DV?$ostreambuf_iterator@DU?$char_traits@D@std@@@std@@@std@@IAEXABV_Locinfo@2@@Z ; std::num_put<char,std::ostreambuf_iterator<char,std::char_traits<char> > >::_Init
PUBLIC	??0?$num_put@DV?$ostreambuf_iterator@DU?$char_traits@D@std@@@std@@@std@@QAE@ABV_Locinfo@1@I@Z ; std::num_put<char,std::ostreambuf_iterator<char,std::char_traits<char> > >::num_put<char,std::ostreambuf_iterator<char,std::char_traits<char> > >
PUBLIC	?put@?$num_put@DV?$ostreambuf_iterator@DU?$char_traits@D@std@@@std@@@std@@QBE?AV?$ostreambuf_iterator@DU?$char_traits@D@std@@@2@V32@AAVios_base@2@DN@Z ; std::num_put<char,std::ostreambuf_iterator<char,std::char_traits<char> > >::put
PUBLIC	?do_put@?$num_put@DV?$ostreambuf_iterator@DU?$char_traits@D@std@@@std@@@std@@MBE?AV?$ostreambuf_iterator@DU?$char_traits@D@std@@@2@V32@AAVios_base@2@D_N@Z ; std::num_put<char,std::ostreambuf_iterator<char,std::char_traits<char> > >::do_put
PUBLIC	?do_put@?$num_put@DV?$ostreambuf_iterator@DU?$char_traits@D@std@@@std@@@std@@MBE?AV?$ostreambuf_iterator@DU?$char_traits@D@std@@@2@V32@AAVios_base@2@DJ@Z ; std::num_put<char,std::ostreambuf_iterator<char,std::char_traits<char> > >::do_put
PUBLIC	?do_put@?$num_put@DV?$ostreambuf_iterator@DU?$char_traits@D@std@@@std@@@std@@MBE?AV?$ostreambuf_iterator@DU?$char_traits@D@std@@@2@V32@AAVios_base@2@DK@Z ; std::num_put<char,std::ostreambuf_iterator<char,std::char_traits<char> > >::do_put
PUBLIC	?do_put@?$num_put@DV?$ostreambuf_iterator@DU?$char_traits@D@std@@@std@@@std@@MBE?AV?$ostreambuf_iterator@DU?$char_traits@D@std@@@2@V32@AAVios_base@2@D_J@Z ; std::num_put<char,std::ostreambuf_iterator<char,std::char_traits<char> > >::do_put
PUBLIC	?do_put@?$num_put@DV?$ostreambuf_iterator@DU?$char_traits@D@std@@@std@@@std@@MBE?AV?$ostreambuf_iterator@DU?$char_traits@D@std@@@2@V32@AAVios_base@2@D_K@Z ; std::num_put<char,std::ostreambuf_iterator<char,std::char_traits<char> > >::do_put
PUBLIC	?do_put@?$num_put@DV?$ostreambuf_iterator@DU?$char_traits@D@std@@@std@@@std@@MBE?AV?$ostreambuf_iterator@DU?$char_traits@D@std@@@2@V32@AAVios_base@2@DN@Z ; std::num_put<char,std::ostreambuf_iterator<char,std::char_traits<char> > >::do_put
PUBLIC	?do_put@?$num_put@DV?$ostreambuf_iterator@DU?$char_traits@D@std@@@std@@@std@@MBE?AV?$ostreambuf_iterator@DU?$char_traits@D@std@@@2@V32@AAVios_base@2@DO@Z ; std::num_put<char,std::ostreambuf_iterator<char,std::char_traits<char> > >::do_put
PUBLIC	?do_put@?$num_put@DV?$ostreambuf_iterator@DU?$char_traits@D@std@@@std@@@std@@MBE?AV?$ostreambuf_iterator@DU?$char_traits@D@std@@@2@V32@AAVios_base@2@DPBX@Z ; std::num_put<char,std::ostreambuf_iterator<char,std::char_traits<char> > >::do_put
PUBLIC	?_Ffmt@?$num_put@DV?$ostreambuf_iterator@DU?$char_traits@D@std@@@std@@@std@@ABAPADPADDH@Z ; std::num_put<char,std::ostreambuf_iterator<char,std::char_traits<char> > >::_Ffmt
PUBLIC	?_Fput@?$num_put@DV?$ostreambuf_iterator@DU?$char_traits@D@std@@@std@@@std@@ABA?AV?$ostreambuf_iterator@DU?$char_traits@D@std@@@2@V32@AAVios_base@2@DPBDI@Z ; std::num_put<char,std::ostreambuf_iterator<char,std::char_traits<char> > >::_Fput
PUBLIC	?_Ifmt@?$num_put@DV?$ostreambuf_iterator@DU?$char_traits@D@std@@@std@@@std@@ABAPADPADPBDH@Z ; std::num_put<char,std::ostreambuf_iterator<char,std::char_traits<char> > >::_Ifmt
PUBLIC	?_Iput@?$num_put@DV?$ostreambuf_iterator@DU?$char_traits@D@std@@@std@@@std@@ABA?AV?$ostreambuf_iterator@DU?$char_traits@D@std@@@2@V32@AAVios_base@2@DPADI@Z ; std::num_put<char,std::ostreambuf_iterator<char,std::char_traits<char> > >::_Iput
PUBLIC	?_Put@?$num_put@DV?$ostreambuf_iterator@DU?$char_traits@D@std@@@std@@@std@@ABA?AV?$ostreambuf_iterator@DU?$char_traits@D@std@@@2@V32@PBDI@Z ; std::num_put<char,std::ostreambuf_iterator<char,std::char_traits<char> > >::_Put
PUBLIC	?_Rep@?$num_put@DV?$ostreambuf_iterator@DU?$char_traits@D@std@@@std@@@std@@ABA?AV?$ostreambuf_iterator@DU?$char_traits@D@std@@@2@V32@DI@Z ; std::num_put<char,std::ostreambuf_iterator<char,std::char_traits<char> > >::_Rep
PUBLIC	??_G?$num_put@DV?$ostreambuf_iterator@DU?$char_traits@D@std@@@std@@@std@@MAEPAXI@Z ; std::num_put<char,std::ostreambuf_iterator<char,std::char_traits<char> > >::`scalar deleting destructor'
PUBLIC	??0?$ostreambuf_iterator@DU?$char_traits@D@std@@@std@@QAE@PAV?$basic_streambuf@DU?$char_traits@D@std@@@1@@Z ; std::ostreambuf_iterator<char,std::char_traits<char> >::ostreambuf_iterator<char,std::char_traits<char> >
PUBLIC	??4?$ostreambuf_iterator@DU?$char_traits@D@std@@@std@@QAEAAV01@D@Z ; std::ostreambuf_iterator<char,std::char_traits<char> >::operator=
PUBLIC	??D?$ostreambuf_iterator@DU?$char_traits@D@std@@@std@@QAEAAV01@XZ ; std::ostreambuf_iterator<char,std::char_traits<char> >::operator*
PUBLIC	??E?$ostreambuf_iterator@DU?$char_traits@D@std@@@std@@QAEAAV01@XZ ; std::ostreambuf_iterator<char,std::char_traits<char> >::operator++
PUBLIC	?failed@?$ostreambuf_iterator@DU?$char_traits@D@std@@@std@@QBE_NXZ ; std::ostreambuf_iterator<char,std::char_traits<char> >::failed
PUBLIC	??$addressof@U?$pair@$$CBV?$basic_string@DU?$char_traits@D@std@@V?$allocator@D@2@@std@@PAVFuzzySet@@@std@@@std@@YAPAU?$pair@$$CBV?$basic_string@DU?$char_traits@D@std@@V?$allocator@D@2@@std@@PAVFuzzySet@@@0@AAU10@@Z ; std::addressof<std::pair<std::basic_string<char,std::char_traits<char>,std::allocator<char> > const ,FuzzySet *> >
PUBLIC	??$addressof@$$CBU?$pair@$$CBV?$basic_string@DU?$char_traits@D@std@@V?$allocator@D@2@@std@@PAVFuzzySet@@@std@@@std@@YAPBU?$pair@$$CBV?$basic_string@DU?$char_traits@D@std@@V?$allocator@D@2@@std@@PAVFuzzySet@@@0@ABU10@@Z ; std::addressof<std::pair<std::basic_string<char,std::char_traits<char>,std::allocator<char> > const ,FuzzySet *> const >
PUBLIC	??$use_facet@V?$numpunct@D@std@@@std@@YAABV?$numpunct@D@0@ABVlocale@0@@Z ; std::use_facet<std::numpunct<char> >
PUBLIC	?decimal_point@?$numpunct@D@std@@QBEDXZ		; std::numpunct<char>::decimal_point
PUBLIC	?thousands_sep@?$numpunct@D@std@@QBEDXZ		; std::numpunct<char>::thousands_sep
PUBLIC	?grouping@?$numpunct@D@std@@QBE?AV?$basic_string@DU?$char_traits@D@std@@V?$allocator@D@2@@2@XZ ; std::numpunct<char>::grouping
PUBLIC	?falsename@?$numpunct@D@std@@QBE?AV?$basic_string@DU?$char_traits@D@std@@V?$allocator@D@2@@2@XZ ; std::numpunct<char>::falsename
PUBLIC	?truename@?$numpunct@D@std@@QBE?AV?$basic_string@DU?$char_traits@D@std@@V?$allocator@D@2@@2@XZ ; std::numpunct<char>::truename
PUBLIC	??0?$numpunct@D@std@@QAE@ABV_Locinfo@1@I_N@Z	; std::numpunct<char>::numpunct<char>
PUBLIC	?_Getcat@?$numpunct@D@std@@SAIPAPBVfacet@locale@2@PBV42@@Z ; std::numpunct<char>::_Getcat
PUBLIC	??1?$numpunct@D@std@@MAE@XZ			; std::numpunct<char>::~numpunct<char>
PUBLIC	?_Init@?$numpunct@D@std@@IAEXABV_Locinfo@2@_N@Z	; std::numpunct<char>::_Init
PUBLIC	?do_decimal_point@?$numpunct@D@std@@MBEDXZ	; std::numpunct<char>::do_decimal_point
PUBLIC	?do_thousands_sep@?$numpunct@D@std@@MBEDXZ	; std::numpunct<char>::do_thousands_sep
PUBLIC	?do_grouping@?$numpunct@D@std@@MBE?AV?$basic_string@DU?$char_traits@D@std@@V?$allocator@D@2@@2@XZ ; std::numpunct<char>::do_grouping
PUBLIC	?do_falsename@?$numpunct@D@std@@MBE?AV?$basic_string@DU?$char_traits@D@std@@V?$allocator@D@2@@2@XZ ; std::numpunct<char>::do_falsename
PUBLIC	?do_truename@?$numpunct@D@std@@MBE?AV?$basic_string@DU?$char_traits@D@std@@V?$allocator@D@2@@2@XZ ; std::numpunct<char>::do_truename
PUBLIC	?_Tidy@?$numpunct@D@std@@AAEXXZ			; std::numpunct<char>::_Tidy
PUBLIC	??_G?$numpunct@D@std@@MAEPAXI@Z			; std::numpunct<char>::`scalar deleting destructor'
PUBLIC	??$?0$$V@?$_Compressed_pair@V?$allocator@D@std@@V?$_String_val@U?$_Simple_types@D@std@@@2@$00@std@@QAE@U_Zero_then_variadic_args_t@1@@Z ; std::_Compressed_pair<std::allocator<char>,std::_String_val<std::_Simple_types<char> >,1>::_Compressed_pair<std::allocator<char>,std::_String_val<std::_Simple_types<char> >,1><>
PUBLIC	??$addressof@PAD@std@@YAPAPADAAPAD@Z		; std::addressof<char *>
PUBLIC	??$destroy@PAD@?$_Default_allocator_traits@V?$allocator@D@std@@@std@@SAXAAV?$allocator@D@1@QAPAD@Z ; std::_Default_allocator_traits<std::allocator<char> >::destroy<char *>
PUBLIC	??$_Max_value@I@std@@YAABIABI0@Z		; std::_Max_value<unsigned int>
PUBLIC	??$construct@PADABQAD@?$_Default_allocator_traits@V?$allocator@D@std@@@std@@SAXAAV?$allocator@D@1@QAPADABQAD@Z ; std::_Default_allocator_traits<std::allocator<char> >::construct<char *,char * const &>
PUBLIC	??$addressof@V?$_String_val@U?$_Simple_types@D@std@@@std@@@std@@YAPAV?$_String_val@U?$_Simple_types@D@std@@@0@AAV10@@Z ; std::addressof<std::_String_val<std::_Simple_types<char> > >
PUBLIC	??$_Allocate@$07U_Default_allocate_traits@std@@$0A@@std@@YAPAXI@Z ; std::_Allocate<8,std::_Default_allocate_traits,0>
PUBLIC	??$_Deallocate@$07$0A@@std@@YAXPAXI@Z		; std::_Deallocate<8,0>
PUBLIC	?pubsync@?$basic_streambuf@DU?$char_traits@D@std@@@std@@QAEHXZ ; std::basic_streambuf<char,std::char_traits<char> >::pubsync
PUBLIC	?sputc@?$basic_streambuf@DU?$char_traits@D@std@@@std@@QAEHD@Z ; std::basic_streambuf<char,std::char_traits<char> >::sputc
PUBLIC	?sputn@?$basic_streambuf@DU?$char_traits@D@std@@@std@@QAE_JPBD_J@Z ; std::basic_streambuf<char,std::char_traits<char> >::sputn
PUBLIC	?_Pninc@?$basic_streambuf@DU?$char_traits@D@std@@@std@@IAEPADXZ ; std::basic_streambuf<char,std::char_traits<char> >::_Pninc
PUBLIC	?_Pnavail@?$basic_streambuf@DU?$char_traits@D@std@@@std@@IBE_JXZ ; std::basic_streambuf<char,std::char_traits<char> >::_Pnavail
PUBLIC	??$_Freenode0@V?$allocator@U?$_Tree_node@U?$pair@$$CBV?$basic_string@DU?$char_traits@D@std@@V?$allocator@D@2@@std@@PAVFuzzySet@@@std@@PAX@std@@@std@@@?$_Tree_node@U?$pair@$$CBV?$basic_string@DU?$char_traits@D@std@@V?$allocator@D@2@@std@@PAVFuzzySet@@@std@@PAX@std@@SAXAAV?$allocator@U?$_Tree_node@U?$pair@$$CBV?$basic_string@DU?$char_traits@D@std@@V?$allocator@D@2@@std@@PAVFuzzySet@@@std@@PAX@std@@@1@PAU01@@Z ; std::_Tree_node<std::pair<std::basic_string<char,std::char_traits<char>,std::allocator<char> > const ,FuzzySet *>,void *>::_Freenode0<std::allocator<std::_Tree_node<std::pair<std::basic_string<char,std::char_traits<char>,std::allocator<char> > const ,FuzzySet *>,void *> > >
PUBLIC	?allocate@?$allocator@U_Container_proxy@std@@@std@@QAEPAU_Container_proxy@2@I@Z ; std::allocator<std::_Container_proxy>::allocate
PUBLIC	??$?0U?$_Tree_node@U?$pair@$$CBV?$basic_string@DU?$char_traits@D@std@@V?$allocator@D@2@@std@@PAVFuzzySet@@@std@@PAX@std@@@?$allocator@U_Container_proxy@std@@@std@@QAE@ABV?$allocator@U?$_Tree_node@U?$pair@$$CBV?$basic_string@DU?$char_traits@D@std@@V?$allocator@D@2@@std@@PAVFuzzySet@@@std@@PAX@std@@@1@@Z ; std::allocator<std::_Container_proxy>::allocator<std::_Container_proxy><std::_Tree_node<std::pair<std::basic_string<char,std::char_traits<char>,std::allocator<char> > const ,FuzzySet *>,void *> >
PUBLIC	?deallocate@?$_Default_allocator_traits@V?$allocator@U_Container_proxy@std@@@std@@@std@@SAXAAV?$allocator@U_Container_proxy@std@@@2@QAU_Container_proxy@2@I@Z ; std::_Default_allocator_traits<std::allocator<std::_Container_proxy> >::deallocate
PUBLIC	??$destroy@U_Container_proxy@std@@@?$_Default_allocator_traits@V?$allocator@U_Container_proxy@std@@@std@@@std@@SAXAAV?$allocator@U_Container_proxy@std@@@1@QAU_Container_proxy@1@@Z ; std::_Default_allocator_traits<std::allocator<std::_Container_proxy> >::destroy<std::_Container_proxy>
PUBLIC	??$_Deallocate_plain@V?$allocator@U_Container_proxy@std@@@std@@$0A@@std@@YAXAAV?$allocator@U_Container_proxy@std@@@0@QAU_Container_proxy@0@@Z ; std::_Deallocate_plain<std::allocator<std::_Container_proxy>,0>
PUBLIC	??$_Unfancy@U_Container_proxy@std@@@std@@YAPAU_Container_proxy@0@PAU10@@Z ; std::_Unfancy<std::_Container_proxy>
PUBLIC	??$construct@U_Container_proxy@std@@U12@@?$_Default_allocator_traits@V?$allocator@U_Container_proxy@std@@@std@@@std@@SAXAAV?$allocator@U_Container_proxy@std@@@1@QAU_Container_proxy@1@$$QAU31@@Z ; std::_Default_allocator_traits<std::allocator<std::_Container_proxy> >::construct<std::_Container_proxy,std::_Container_proxy>
PUBLIC	??$?0D@?$allocator@U_Container_proxy@std@@@std@@QAE@ABV?$allocator@D@1@@Z ; std::allocator<std::_Container_proxy>::allocator<std::_Container_proxy><char>
PUBLIC	??$destroy@U?$pair@$$CBV?$basic_string@DU?$char_traits@D@std@@V?$allocator@D@2@@std@@PAVFuzzySet@@@std@@@?$_Default_allocator_traits@V?$allocator@U?$_Tree_node@U?$pair@$$CBV?$basic_string@DU?$char_traits@D@std@@V?$allocator@D@2@@std@@PAVFuzzySet@@@std@@PAX@std@@@std@@@std@@SAXAAV?$allocator@U?$_Tree_node@U?$pair@$$CBV?$basic_string@DU?$char_traits@D@std@@V?$allocator@D@2@@std@@PAVFuzzySet@@@std@@PAX@std@@@1@QAU?$pair@$$CBV?$basic_string@DU?$char_traits@D@std@@V?$allocator@D@2@@std@@PAVFuzzySet@@@1@@Z ; std::_Default_allocator_traits<std::allocator<std::_Tree_node<std::pair<std::basic_string<char,std::char_traits<char>,std::allocator<char> > const ,FuzzySet *>,void *> > >::destroy<std::pair<std::basic_string<char,std::char_traits<char>,std::allocator<char> > const ,FuzzySet *> >
PUBLIC	??$_Get_size_of_n@$07@std@@YAII@Z		; std::_Get_size_of_n<8>
PUBLIC	??$addressof@V?$basic_string@DU?$char_traits@D@std@@V?$allocator@D@2@@std@@@std@@YAPAV?$basic_string@DU?$char_traits@D@std@@V?$allocator@D@2@@0@AAV10@@Z ; std::addressof<std::basic_string<char,std::char_traits<char>,std::allocator<char> > >
PUBLIC	??$swap@DX@std@@YAXAAD0@Z			; std::swap<char,void>
PUBLIC	??$addressof@PAU?$_Tree_node@U?$pair@$$CBV?$basic_string@DU?$char_traits@D@std@@V?$allocator@D@2@@std@@PAVFuzzySet@@@std@@PAX@std@@@std@@YAPAPAU?$_Tree_node@U?$pair@$$CBV?$basic_string@DU?$char_traits@D@std@@V?$allocator@D@2@@std@@PAVFuzzySet@@@std@@PAX@0@AAPAU10@@Z ; std::addressof<std::_Tree_node<std::pair<std::basic_string<char,std::char_traits<char>,std::allocator<char> > const ,FuzzySet *>,void *> *>
PUBLIC	??$construct@PAU?$_Tree_node@U?$pair@$$CBV?$basic_string@DU?$char_traits@D@std@@V?$allocator@D@2@@std@@PAVFuzzySet@@@std@@PAX@std@@AAPAU12@@?$_Default_allocator_traits@V?$allocator@U?$_Tree_node@U?$pair@$$CBV?$basic_string@DU?$char_traits@D@std@@V?$allocator@D@2@@std@@PAVFuzzySet@@@std@@PAX@std@@@std@@@std@@SAXAAV?$allocator@U?$_Tree_node@U?$pair@$$CBV?$basic_string@DU?$char_traits@D@std@@V?$allocator@D@2@@std@@PAVFuzzySet@@@std@@PAX@std@@@1@QAPAU?$_Tree_node@U?$pair@$$CBV?$basic_string@DU?$char_traits@D@std@@V?$allocator@D@2@@std@@PAVFuzzySet@@@std@@PAX@1@AAPAU31@@Z ; std::_Default_allocator_traits<std::allocator<std::_Tree_node<std::pair<std::basic_string<char,std::char_traits<char>,std::allocator<char> > const ,FuzzySet *>,void *> > >::construct<std::_Tree_node<std::pair<std::basic_string<char,std::char_traits<char>,std::allocator<char> > const ,FuzzySet *>,void *> *,std::_Tree_node<std::pair<std::basic_string<char,std::char_traits<char>,std::allocator<char> > const ,FuzzySet *>,void *> * &>
PUBLIC	??$?9DD@std@@YA_NABV?$allocator@D@0@0@Z		; std::operator!=<char,char>
PUBLIC	??$_Pocma@V?$allocator@D@std@@@std@@YAXAAV?$allocator@D@0@0@Z ; std::_Pocma<std::allocator<char> >
PUBLIC	??$_Get_size_of_n@$0DA@@std@@YAII@Z		; std::_Get_size_of_n<48>
PUBLIC	??$_Debug_range2@PBD@std@@YAXPBD0PB_WIUrandom_access_iterator_tag@0@@Z ; std::_Debug_range2<char const *>
PUBLIC	??R?$default_delete@V_Facet_base@std@@@std@@QBEXPAV_Facet_base@1@@Z ; std::default_delete<std::_Facet_base>::operator()
PUBLIC	?get_deleter@?$_Unique_ptr_base@V_Facet_base@std@@U?$default_delete@V_Facet_base@std@@@2@@std@@QAEAAU?$default_delete@V_Facet_base@std@@@2@XZ ; std::_Unique_ptr_base<std::_Facet_base,std::default_delete<std::_Facet_base> >::get_deleter
PUBLIC	?_Myptr@?$_Unique_ptr_base@V_Facet_base@std@@U?$default_delete@V_Facet_base@std@@@2@@std@@QAEAAPAV_Facet_base@2@XZ ; std::_Unique_ptr_base<std::_Facet_base,std::default_delete<std::_Facet_base> >::_Myptr
PUBLIC	?_Myptr@?$_Unique_ptr_base@V_Facet_base@std@@U?$default_delete@V_Facet_base@std@@@2@@std@@QBEABQAV_Facet_base@2@XZ ; std::_Unique_ptr_base<std::_Facet_base,std::default_delete<std::_Facet_base> >::_Myptr
PUBLIC	?_Get_first@?$_Compressed_pair@U?$default_delete@V_Facet_base@std@@@std@@PAV_Facet_base@2@$00@std@@QAEAAU?$default_delete@V_Facet_base@std@@@2@XZ ; std::_Compressed_pair<std::default_delete<std::_Facet_base>,std::_Facet_base *,1>::_Get_first
PUBLIC	?_Get_second@?$_Compressed_pair@U?$default_delete@V_Facet_base@std@@@std@@PAV_Facet_base@2@$00@std@@QAEAAPAV_Facet_base@2@XZ ; std::_Compressed_pair<std::default_delete<std::_Facet_base>,std::_Facet_base *,1>::_Get_second
PUBLIC	?_Get_second@?$_Compressed_pair@U?$default_delete@V_Facet_base@std@@@std@@PAV_Facet_base@2@$00@std@@QBEABQAV_Facet_base@2@XZ ; std::_Compressed_pair<std::default_delete<std::_Facet_base>,std::_Facet_base *,1>::_Get_second
PUBLIC	??1?$unique_ptr@V_Facet_base@std@@U?$default_delete@V_Facet_base@std@@@2@@std@@QAE@XZ ; std::unique_ptr<std::_Facet_base,std::default_delete<std::_Facet_base> >::~unique_ptr<std::_Facet_base,std::default_delete<std::_Facet_base> >
PUBLIC	?get@?$unique_ptr@V_Facet_base@std@@U?$default_delete@V_Facet_base@std@@@2@@std@@QBEPAV_Facet_base@2@XZ ; std::unique_ptr<std::_Facet_base,std::default_delete<std::_Facet_base> >::get
PUBLIC	?release@?$unique_ptr@V_Facet_base@std@@U?$default_delete@V_Facet_base@std@@@2@@std@@QAEPAV_Facet_base@2@XZ ; std::unique_ptr<std::_Facet_base,std::default_delete<std::_Facet_base> >::release
PUBLIC	??$?0U?$default_delete@V_Facet_base@std@@@std@@$0A@@?$unique_ptr@V_Facet_base@std@@U?$default_delete@V_Facet_base@std@@@2@@std@@QAE@PAV_Facet_base@1@@Z ; std::unique_ptr<std::_Facet_base,std::default_delete<std::_Facet_base> >::unique_ptr<std::_Facet_base,std::default_delete<std::_Facet_base> ><std::default_delete<std::_Facet_base>,0>
PUBLIC	??$_Immortalize_impl@V_Iostream_error_category@std@@@std@@YGHPAX0PAPAX@Z ; std::_Immortalize_impl<std::_Iostream_error_category>
PUBLIC	??$_Insert_string@DU?$char_traits@D@std@@I@std@@YAAAV?$basic_ostream@DU?$char_traits@D@std@@@0@AAV10@QBDI@Z ; std::_Insert_string<char,std::char_traits<char>,unsigned int>
PUBLIC	??$_Try_emplace@ABV?$basic_string@DU?$char_traits@D@std@@V?$allocator@D@2@@std@@$$V@?$map@V?$basic_string@DU?$char_traits@D@std@@V?$allocator@D@2@@std@@PAVFuzzySet@@U?$less@V?$basic_string@DU?$char_traits@D@std@@V?$allocator@D@2@@std@@@2@V?$allocator@U?$pair@$$CBV?$basic_string@DU?$char_traits@D@std@@V?$allocator@D@2@@std@@PAVFuzzySet@@@std@@@2@@std@@QAE?AU?$pair@V?$_Tree_iterator@V?$_Tree_val@U?$_Tree_simple_types@U?$pair@$$CBV?$basic_string@DU?$char_traits@D@std@@V?$allocator@D@2@@std@@PAVFuzzySet@@@std@@@std@@@std@@@std@@_N@1@ABV?$basic_string@DU?$char_traits@D@std@@V?$allocator@D@2@@1@@Z ; std::map<std::basic_string<char,std::char_traits<char>,std::allocator<char> >,FuzzySet *,std::less<std::basic_string<char,std::char_traits<char>,std::allocator<char> > >,std::allocator<std::pair<std::basic_string<char,std::char_traits<char>,std::allocator<char> > const ,FuzzySet *> > >::_Try_emplace<std::basic_string<char,std::char_traits<char>,std::allocator<char> > const &>
PUBLIC	??$forward@V?$allocator@D@std@@@std@@YA$$QAV?$allocator@D@0@AAV10@@Z ; std::forward<std::allocator<char> >
PUBLIC	??$?0V?$allocator@D@std@@$$V@?$_Compressed_pair@V?$allocator@D@std@@V?$_String_val@U?$_Simple_types@D@std@@@2@$00@std@@QAE@U_One_then_variadic_args_t@1@$$QAV?$allocator@D@1@@Z ; std::_Compressed_pair<std::allocator<char>,std::_String_val<std::_Simple_types<char> >,1>::_Compressed_pair<std::allocator<char>,std::_String_val<std::_Simple_types<char> >,1><std::allocator<char> >
PUBLIC	??$forward@ABQAD@std@@YAABQADABQAD@Z		; std::forward<char * const &>
PUBLIC	??$_Allocate_manually_vector_aligned@U_Default_allocate_traits@std@@@std@@YAPAXI@Z ; std::_Allocate_manually_vector_aligned<std::_Default_allocate_traits>
PUBLIC	??$destroy@PAU?$_Tree_node@U?$pair@$$CBV?$basic_string@DU?$char_traits@D@std@@V?$allocator@D@2@@std@@PAVFuzzySet@@@std@@PAX@std@@@?$_Default_allocator_traits@V?$allocator@U?$_Tree_node@U?$pair@$$CBV?$basic_string@DU?$char_traits@D@std@@V?$allocator@D@2@@std@@PAVFuzzySet@@@std@@PAX@std@@@std@@@std@@SAXAAV?$allocator@U?$_Tree_node@U?$pair@$$CBV?$basic_string@DU?$char_traits@D@std@@V?$allocator@D@2@@std@@PAVFuzzySet@@@std@@PAX@std@@@1@QAPAU?$_Tree_node@U?$pair@$$CBV?$basic_string@DU?$char_traits@D@std@@V?$allocator@D@2@@std@@PAVFuzzySet@@@std@@PAX@1@@Z ; std::_Default_allocator_traits<std::allocator<std::_Tree_node<std::pair<std::basic_string<char,std::char_traits<char>,std::allocator<char> > const ,FuzzySet *>,void *> > >::destroy<std::_Tree_node<std::pair<std::basic_string<char,std::char_traits<char>,std::allocator<char> > const ,FuzzySet *>,void *> *>
PUBLIC	??$forward@U_Container_proxy@std@@@std@@YA$$QAU_Container_proxy@0@AAU10@@Z ; std::forward<std::_Container_proxy>
PUBLIC	??$move@AAD@std@@YA$$QADAAD@Z			; std::move<char &>
PUBLIC	??$forward@AAPAU?$_Tree_node@U?$pair@$$CBV?$basic_string@DU?$char_traits@D@std@@V?$allocator@D@2@@std@@PAVFuzzySet@@@std@@PAX@std@@@std@@YAAAPAU?$_Tree_node@U?$pair@$$CBV?$basic_string@DU?$char_traits@D@std@@V?$allocator@D@2@@std@@PAVFuzzySet@@@std@@PAX@0@AAPAU10@@Z ; std::forward<std::_Tree_node<std::pair<std::basic_string<char,std::char_traits<char>,std::allocator<char> > const ,FuzzySet *>,void *> * &>
PUBLIC	??$_Pocma@V?$allocator@D@std@@@std@@YAXAAV?$allocator@D@0@0U?$integral_constant@_N$00@0@@Z ; std::_Pocma<std::allocator<char> >
PUBLIC	??$_Maklocstr@D@std@@YAPADPBDPADABU_Cvtvec@@@Z	; std::_Maklocstr<char>
PUBLIC	??$_Maklocchr@D@std@@YADDPADABU_Cvtvec@@@Z	; std::_Maklocchr<char>
PUBLIC	??$_Getvals@D@?$numpunct@D@std@@IAEXDPBUlconv@@U_Cvtvec@@@Z ; std::numpunct<char>::_Getvals<char>
PUBLIC	??$?0PAV_Facet_base@std@@@?$_Unique_ptr_base@V_Facet_base@std@@U?$default_delete@V_Facet_base@std@@@2@@std@@QAE@PAV_Facet_base@1@@Z ; std::_Unique_ptr_base<std::_Facet_base,std::default_delete<std::_Facet_base> >::_Unique_ptr_base<std::_Facet_base,std::default_delete<std::_Facet_base> ><std::_Facet_base *>
PUBLIC	??$_Debug_lt_pred@AAU?$less@V?$basic_string@DU?$char_traits@D@std@@V?$allocator@D@2@@std@@@std@@ABV?$basic_string@DU?$char_traits@D@std@@V?$allocator@D@2@@2@ABV32@@std@@YA_NAAU?$less@V?$basic_string@DU?$char_traits@D@std@@V?$allocator@D@2@@std@@@0@ABV?$basic_string@DU?$char_traits@D@std@@V?$allocator@D@2@@0@1PB_WI@Z ; std::_Debug_lt_pred<std::less<std::basic_string<char,std::char_traits<char>,std::allocator<char> > > &,std::basic_string<char,std::char_traits<char>,std::allocator<char> > const &,std::basic_string<char,std::char_traits<char>,std::allocator<char> > const &>
PUBLIC	??$forward@ABV?$basic_string@DU?$char_traits@D@std@@V?$allocator@D@2@@std@@@std@@YAABV?$basic_string@DU?$char_traits@D@std@@V?$allocator@D@2@@0@ABV10@@Z ; std::forward<std::basic_string<char,std::char_traits<char>,std::allocator<char> > const &>
PUBLIC	??$forward_as_tuple@ABV?$basic_string@DU?$char_traits@D@std@@V?$allocator@D@2@@std@@@std@@YA?AV?$tuple@ABV?$basic_string@DU?$char_traits@D@std@@V?$allocator@D@2@@std@@@0@ABV?$basic_string@DU?$char_traits@D@std@@V?$allocator@D@2@@0@@Z ; std::forward_as_tuple<std::basic_string<char,std::char_traits<char>,std::allocator<char> > const &>
PUBLIC	??0?$tuple@ABV?$basic_string@DU?$char_traits@D@std@@V?$allocator@D@2@@std@@@std@@QAE@$$QAV01@@Z ; std::tuple<std::basic_string<char,std::char_traits<char>,std::allocator<char> > const &>::tuple<std::basic_string<char,std::char_traits<char>,std::allocator<char> > const &>
PUBLIC	??$forward_as_tuple@$$V@std@@YA?AV?$tuple@$$V@0@XZ ; std::forward_as_tuple<>
PUBLIC	??$emplace_hint@ABUpiecewise_construct_t@std@@V?$tuple@ABV?$basic_string@DU?$char_traits@D@std@@V?$allocator@D@2@@std@@@2@V?$tuple@$$V@2@@?$_Tree@V?$_Tmap_traits@V?$basic_string@DU?$char_traits@D@std@@V?$allocator@D@2@@std@@PAVFuzzySet@@U?$less@V?$basic_string@DU?$char_traits@D@std@@V?$allocator@D@2@@std@@@2@V?$allocator@U?$pair@$$CBV?$basic_string@DU?$char_traits@D@std@@V?$allocator@D@2@@std@@PAVFuzzySet@@@std@@@2@$0A@@std@@@std@@QAE?AV?$_Tree_iterator@V?$_Tree_val@U?$_Tree_simple_types@U?$pair@$$CBV?$basic_string@DU?$char_traits@D@std@@V?$allocator@D@2@@std@@PAVFuzzySet@@@std@@@std@@@std@@@1@V?$_Tree_const_iterator@V?$_Tree_val@U?$_Tree_simple_types@U?$pair@$$CBV?$basic_string@DU?$char_traits@D@std@@V?$allocator@D@2@@std@@PAVFuzzySet@@@std@@@std@@@std@@@1@ABUpiecewise_construct_t@1@$$QAV?$tuple@ABV?$basic_string@DU?$char_traits@D@std@@V?$allocator@D@2@@std@@@1@$$QAV?$tuple@$$V@1@@Z ; std::_Tree<std::_Tmap_traits<std::basic_string<char,std::char_traits<char>,std::allocator<char> >,FuzzySet *,std::less<std::basic_string<char,std::char_traits<char>,std::allocator<char> > >,std::allocator<std::pair<std::basic_string<char,std::char_traits<char>,std::allocator<char> > const ,FuzzySet *> >,0> >::emplace_hint<std::piecewise_construct_t const &,std::tuple<std::basic_string<char,std::char_traits<char>,std::allocator<char> > const &>,std::tuple<> >
PUBLIC	??$?0V?$_Tree_iterator@V?$_Tree_val@U?$_Tree_simple_types@U?$pair@$$CBV?$basic_string@DU?$char_traits@D@std@@V?$allocator@D@2@@std@@PAVFuzzySet@@@std@@@std@@@std@@@std@@_N$0A@@?$pair@V?$_Tree_iterator@V?$_Tree_val@U?$_Tree_simple_types@U?$pair@$$CBV?$basic_string@DU?$char_traits@D@std@@V?$allocator@D@2@@std@@PAVFuzzySet@@@std@@@std@@@std@@@std@@_N@std@@QAE@$$QAV?$_Tree_iterator@V?$_Tree_val@U?$_Tree_simple_types@U?$pair@$$CBV?$basic_string@DU?$char_traits@D@std@@V?$allocator@D@2@@std@@PAVFuzzySet@@@std@@@std@@@std@@@1@$$QA_N@Z ; std::pair<std::_Tree_iterator<std::_Tree_val<std::_Tree_simple_types<std::pair<std::basic_string<char,std::char_traits<char>,std::allocator<char> > const ,FuzzySet *> > > >,bool>::pair<std::_Tree_iterator<std::_Tree_val<std::_Tree_simple_types<std::pair<std::basic_string<char,std::char_traits<char>,std::allocator<char> > const ,FuzzySet *> > > >,bool><std::_Tree_iterator<std::_Tree_val<std::_Tree_simple_types<std::pair<std::basic_string<char,std::char_traits<char>,std::allocator<char> > const ,FuzzySet *> > > >,bool,0>
PUBLIC	??$?0AAV?$_Tree_iterator@V?$_Tree_val@U?$_Tree_simple_types@U?$pair@$$CBV?$basic_string@DU?$char_traits@D@std@@V?$allocator@D@2@@std@@PAVFuzzySet@@@std@@@std@@@std@@@std@@_N$0A@@?$pair@V?$_Tree_iterator@V?$_Tree_val@U?$_Tree_simple_types@U?$pair@$$CBV?$basic_string@DU?$char_traits@D@std@@V?$allocator@D@2@@std@@PAVFuzzySet@@@std@@@std@@@std@@@std@@_N@std@@QAE@AAV?$_Tree_iterator@V?$_Tree_val@U?$_Tree_simple_types@U?$pair@$$CBV?$basic_string@DU?$char_traits@D@std@@V?$allocator@D@2@@std@@PAVFuzzySet@@@std@@@std@@@std@@@1@$$QA_N@Z ; std::pair<std::_Tree_iterator<std::_Tree_val<std::_Tree_simple_types<std::pair<std::basic_string<char,std::char_traits<char>,std::allocator<char> > const ,FuzzySet *> > > >,bool>::pair<std::_Tree_iterator<std::_Tree_val<std::_Tree_simple_types<std::pair<std::basic_string<char,std::char_traits<char>,std::allocator<char> > const ,FuzzySet *> > > >,bool><std::_Tree_iterator<std::_Tree_val<std::_Tree_simple_types<std::pair<std::basic_string<char,std::char_traits<char>,std::allocator<char> > const ,FuzzySet *> > > > &,bool,0>
PUBLIC	??$_Lbound@V?$basic_string@DU?$char_traits@D@std@@V?$allocator@D@2@@std@@@?$_Tree@V?$_Tmap_traits@V?$basic_string@DU?$char_traits@D@std@@V?$allocator@D@2@@std@@PAVFuzzySet@@U?$less@V?$basic_string@DU?$char_traits@D@std@@V?$allocator@D@2@@std@@@2@V?$allocator@U?$pair@$$CBV?$basic_string@DU?$char_traits@D@std@@V?$allocator@D@2@@std@@PAVFuzzySet@@@std@@@2@$0A@@std@@@std@@IBEPAU?$_Tree_node@U?$pair@$$CBV?$basic_string@DU?$char_traits@D@std@@V?$allocator@D@2@@std@@PAVFuzzySet@@@std@@PAX@1@ABV?$basic_string@DU?$char_traits@D@std@@V?$allocator@D@2@@1@@Z ; std::_Tree<std::_Tmap_traits<std::basic_string<char,std::char_traits<char>,std::allocator<char> >,FuzzySet *,std::less<std::basic_string<char,std::char_traits<char>,std::allocator<char> > >,std::allocator<std::pair<std::basic_string<char,std::char_traits<char>,std::allocator<char> > const ,FuzzySet *> >,0> >::_Lbound<std::basic_string<char,std::char_traits<char>,std::allocator<char> > >
PUBLIC	??$_Kfn@$$CBV?$basic_string@DU?$char_traits@D@std@@V?$allocator@D@2@@std@@PAVFuzzySet@@@?$_Tmap_traits@V?$basic_string@DU?$char_traits@D@std@@V?$allocator@D@2@@std@@PAVFuzzySet@@U?$less@V?$basic_string@DU?$char_traits@D@std@@V?$allocator@D@2@@std@@@2@V?$allocator@U?$pair@$$CBV?$basic_string@DU?$char_traits@D@std@@V?$allocator@D@2@@std@@PAVFuzzySet@@@std@@@2@$0A@@std@@SAABV?$basic_string@DU?$char_traits@D@std@@V?$allocator@D@2@@1@ABU?$pair@$$CBV?$basic_string@DU?$char_traits@D@std@@V?$allocator@D@2@@std@@PAVFuzzySet@@@1@@Z ; std::_Tmap_traits<std::basic_string<char,std::char_traits<char>,std::allocator<char> >,FuzzySet *,std::less<std::basic_string<char,std::char_traits<char>,std::allocator<char> > >,std::allocator<std::pair<std::basic_string<char,std::char_traits<char>,std::allocator<char> > const ,FuzzySet *> >,0>::_Kfn<std::basic_string<char,std::char_traits<char>,std::allocator<char> > const ,FuzzySet *>
PUBLIC	??$?0AAPAV_Facet_base@std@@@?$_Compressed_pair@U?$default_delete@V_Facet_base@std@@@std@@PAV_Facet_base@2@$00@std@@QAE@U_Zero_then_variadic_args_t@1@AAPAV_Facet_base@1@@Z ; std::_Compressed_pair<std::default_delete<std::_Facet_base>,std::_Facet_base *,1>::_Compressed_pair<std::default_delete<std::_Facet_base>,std::_Facet_base *,1><std::_Facet_base * &>
PUBLIC	??$?0ABV?$basic_string@DU?$char_traits@D@std@@V?$allocator@D@2@@std@@$0A@@?$tuple@ABV?$basic_string@DU?$char_traits@D@std@@V?$allocator@D@2@@std@@@std@@QAE@ABV?$basic_string@DU?$char_traits@D@std@@V?$allocator@D@2@@1@@Z ; std::tuple<std::basic_string<char,std::char_traits<char>,std::allocator<char> > const &>::tuple<std::basic_string<char,std::char_traits<char>,std::allocator<char> > const &><std::basic_string<char,std::char_traits<char>,std::allocator<char> > const &,0>
PUBLIC	??$forward@ABUpiecewise_construct_t@std@@@std@@YAABUpiecewise_construct_t@0@ABU10@@Z ; std::forward<std::piecewise_construct_t const &>
PUBLIC	??$forward@V?$tuple@ABV?$basic_string@DU?$char_traits@D@std@@V?$allocator@D@2@@std@@@std@@@std@@YA$$QAV?$tuple@ABV?$basic_string@DU?$char_traits@D@std@@V?$allocator@D@2@@std@@@0@AAV10@@Z ; std::forward<std::tuple<std::basic_string<char,std::char_traits<char>,std::allocator<char> > const &> >
PUBLIC	??$forward@V?$tuple@$$V@std@@@std@@YA$$QAV?$tuple@$$V@0@AAV10@@Z ; std::forward<std::tuple<> >
PUBLIC	??$_Buynode@ABUpiecewise_construct_t@std@@V?$tuple@ABV?$basic_string@DU?$char_traits@D@std@@V?$allocator@D@2@@std@@@2@V?$tuple@$$V@2@@?$_Tree_comp_alloc@V?$_Tmap_traits@V?$basic_string@DU?$char_traits@D@std@@V?$allocator@D@2@@std@@PAVFuzzySet@@U?$less@V?$basic_string@DU?$char_traits@D@std@@V?$allocator@D@2@@std@@@2@V?$allocator@U?$pair@$$CBV?$basic_string@DU?$char_traits@D@std@@V?$allocator@D@2@@std@@PAVFuzzySet@@@std@@@2@$0A@@std@@@std@@QAEPAU?$_Tree_node@U?$pair@$$CBV?$basic_string@DU?$char_traits@D@std@@V?$allocator@D@2@@std@@PAVFuzzySet@@@std@@PAX@1@ABUpiecewise_construct_t@1@$$QAV?$tuple@ABV?$basic_string@DU?$char_traits@D@std@@V?$allocator@D@2@@std@@@1@$$QAV?$tuple@$$V@1@@Z ; std::_Tree_comp_alloc<std::_Tmap_traits<std::basic_string<char,std::char_traits<char>,std::allocator<char> >,FuzzySet *,std::less<std::basic_string<char,std::char_traits<char>,std::allocator<char> > >,std::allocator<std::pair<std::basic_string<char,std::char_traits<char>,std::allocator<char> > const ,FuzzySet *> >,0> >::_Buynode<std::piecewise_construct_t const &,std::tuple<std::basic_string<char,std::char_traits<char>,std::allocator<char> > const &>,std::tuple<> >
PUBLIC	??$_Insert_hint@AAU?$pair@$$CBV?$basic_string@DU?$char_traits@D@std@@V?$allocator@D@2@@std@@PAVFuzzySet@@@std@@PAU?$_Tree_node@U?$pair@$$CBV?$basic_string@DU?$char_traits@D@std@@V?$allocator@D@2@@std@@PAVFuzzySet@@@std@@PAX@2@@?$_Tree@V?$_Tmap_traits@V?$basic_string@DU?$char_traits@D@std@@V?$allocator@D@2@@std@@PAVFuzzySet@@U?$less@V?$basic_string@DU?$char_traits@D@std@@V?$allocator@D@2@@std@@@2@V?$allocator@U?$pair@$$CBV?$basic_string@DU?$char_traits@D@std@@V?$allocator@D@2@@std@@PAVFuzzySet@@@std@@@2@$0A@@std@@@std@@IAE?AV?$_Tree_iterator@V?$_Tree_val@U?$_Tree_simple_types@U?$pair@$$CBV?$basic_string@DU?$char_traits@D@std@@V?$allocator@D@2@@std@@PAVFuzzySet@@@std@@@std@@@std@@@1@V?$_Tree_const_iterator@V?$_Tree_val@U?$_Tree_simple_types@U?$pair@$$CBV?$basic_string@DU?$char_traits@D@std@@V?$allocator@D@2@@std@@PAVFuzzySet@@@std@@@std@@@std@@@1@AAU?$pair@$$CBV?$basic_string@DU?$char_traits@D@std@@V?$allocator@D@2@@std@@PAVFuzzySet@@@1@PAU?$_Tree_node@U?$pair@$$CBV?$basic_string@DU?$char_traits@D@std@@V?$allocator@D@2@@std@@PAVFuzzySet@@@std@@PAX@1@@Z ; std::_Tree<std::_Tmap_traits<std::basic_string<char,std::char_traits<char>,std::allocator<char> >,FuzzySet *,std::less<std::basic_string<char,std::char_traits<char>,std::allocator<char> > >,std::allocator<std::pair<std::basic_string<char,std::char_traits<char>,std::allocator<char> > const ,FuzzySet *> >,0> >::_Insert_hint<std::pair<std::basic_string<char,std::char_traits<char>,std::allocator<char> > const ,FuzzySet *> &,std::_Tree_node<std::pair<std::basic_string<char,std::char_traits<char>,std::allocator<char> > const ,FuzzySet *>,void *> *>
PUBLIC	??$forward@V?$_Tree_iterator@V?$_Tree_val@U?$_Tree_simple_types@U?$pair@$$CBV?$basic_string@DU?$char_traits@D@std@@V?$allocator@D@2@@std@@PAVFuzzySet@@@std@@@std@@@std@@@std@@@std@@YA$$QAV?$_Tree_iterator@V?$_Tree_val@U?$_Tree_simple_types@U?$pair@$$CBV?$basic_string@DU?$char_traits@D@std@@V?$allocator@D@2@@std@@PAVFuzzySet@@@std@@@std@@@std@@@0@AAV10@@Z ; std::forward<std::_Tree_iterator<std::_Tree_val<std::_Tree_simple_types<std::pair<std::basic_string<char,std::char_traits<char>,std::allocator<char> > const ,FuzzySet *> > > > >
PUBLIC	??$forward@_N@std@@YA$$QA_NAA_N@Z		; std::forward<bool>
PUBLIC	??$forward@AAV?$_Tree_iterator@V?$_Tree_val@U?$_Tree_simple_types@U?$pair@$$CBV?$basic_string@DU?$char_traits@D@std@@V?$allocator@D@2@@std@@PAVFuzzySet@@@std@@@std@@@std@@@std@@@std@@YAAAV?$_Tree_iterator@V?$_Tree_val@U?$_Tree_simple_types@U?$pair@$$CBV?$basic_string@DU?$char_traits@D@std@@V?$allocator@D@2@@std@@PAVFuzzySet@@@std@@@std@@@std@@@0@AAV10@@Z ; std::forward<std::_Tree_iterator<std::_Tree_val<std::_Tree_simple_types<std::pair<std::basic_string<char,std::char_traits<char>,std::allocator<char> > const ,FuzzySet *> > > > &>
PUBLIC	??$_Debug_lt_pred@ABU?$less@V?$basic_string@DU?$char_traits@D@std@@V?$allocator@D@2@@std@@@std@@ABV?$basic_string@DU?$char_traits@D@std@@V?$allocator@D@2@@2@ABV32@@std@@YA_NABU?$less@V?$basic_string@DU?$char_traits@D@std@@V?$allocator@D@2@@std@@@0@ABV?$basic_string@DU?$char_traits@D@std@@V?$allocator@D@2@@0@1PB_WI@Z ; std::_Debug_lt_pred<std::less<std::basic_string<char,std::char_traits<char>,std::allocator<char> > > const &,std::basic_string<char,std::char_traits<char>,std::allocator<char> > const &,std::basic_string<char,std::char_traits<char>,std::allocator<char> > const &>
PUBLIC	??$?MDU?$char_traits@D@std@@V?$allocator@D@1@@std@@YA_NABV?$basic_string@DU?$char_traits@D@std@@V?$allocator@D@2@@0@0@Z ; std::operator<<char,std::char_traits<char>,std::allocator<char> >
PUBLIC	??$forward@AAPAV_Facet_base@std@@@std@@YAAAPAV_Facet_base@0@AAPAV10@@Z ; std::forward<std::_Facet_base * &>
PUBLIC	??$?0U_Exact_args_t@std@@ABV?$basic_string@DU?$char_traits@D@std@@V?$allocator@D@2@@1@$$V$0A@@?$tuple@ABV?$basic_string@DU?$char_traits@D@std@@V?$allocator@D@2@@std@@@std@@QAE@U_Exact_args_t@1@ABV?$basic_string@DU?$char_traits@D@std@@V?$allocator@D@2@@1@@Z ; std::tuple<std::basic_string<char,std::char_traits<char>,std::allocator<char> > const &>::tuple<std::basic_string<char,std::char_traits<char>,std::allocator<char> > const &><std::_Exact_args_t,std::basic_string<char,std::char_traits<char>,std::allocator<char> > const &,0>
PUBLIC	??$construct@U?$pair@$$CBV?$basic_string@DU?$char_traits@D@std@@V?$allocator@D@2@@std@@PAVFuzzySet@@@std@@ABUpiecewise_construct_t@2@V?$tuple@ABV?$basic_string@DU?$char_traits@D@std@@V?$allocator@D@2@@std@@@2@V?$tuple@$$V@2@@?$_Default_allocator_traits@V?$allocator@U?$_Tree_node@U?$pair@$$CBV?$basic_string@DU?$char_traits@D@std@@V?$allocator@D@2@@std@@PAVFuzzySet@@@std@@PAX@std@@@std@@@std@@SAXAAV?$allocator@U?$_Tree_node@U?$pair@$$CBV?$basic_string@DU?$char_traits@D@std@@V?$allocator@D@2@@std@@PAVFuzzySet@@@std@@PAX@std@@@1@QAU?$pair@$$CBV?$basic_string@DU?$char_traits@D@std@@V?$allocator@D@2@@std@@PAVFuzzySet@@@1@ABUpiecewise_construct_t@1@$$QAV?$tuple@ABV?$basic_string@DU?$char_traits@D@std@@V?$allocator@D@2@@std@@@1@$$QAV?$tuple@$$V@1@@Z ; std::_Default_allocator_traits<std::allocator<std::_Tree_node<std::pair<std::basic_string<char,std::char_traits<char>,std::allocator<char> > const ,FuzzySet *>,void *> > >::construct<std::pair<std::basic_string<char,std::char_traits<char>,std::allocator<char> > const ,FuzzySet *>,std::piecewise_construct_t const &,std::tuple<std::basic_string<char,std::char_traits<char>,std::allocator<char> > const &>,std::tuple<> >
PUBLIC	??$forward@AAU?$pair@$$CBV?$basic_string@DU?$char_traits@D@std@@V?$allocator@D@2@@std@@PAVFuzzySet@@@std@@@std@@YAAAU?$pair@$$CBV?$basic_string@DU?$char_traits@D@std@@V?$allocator@D@2@@std@@PAVFuzzySet@@@0@AAU10@@Z ; std::forward<std::pair<std::basic_string<char,std::char_traits<char>,std::allocator<char> > const ,FuzzySet *> &>
PUBLIC	??$_Insert_at@AAU?$pair@$$CBV?$basic_string@DU?$char_traits@D@std@@V?$allocator@D@2@@std@@PAVFuzzySet@@@std@@PAU?$_Tree_node@U?$pair@$$CBV?$basic_string@DU?$char_traits@D@std@@V?$allocator@D@2@@std@@PAVFuzzySet@@@std@@PAX@2@@?$_Tree@V?$_Tmap_traits@V?$basic_string@DU?$char_traits@D@std@@V?$allocator@D@2@@std@@PAVFuzzySet@@U?$less@V?$basic_string@DU?$char_traits@D@std@@V?$allocator@D@2@@std@@@2@V?$allocator@U?$pair@$$CBV?$basic_string@DU?$char_traits@D@std@@V?$allocator@D@2@@std@@PAVFuzzySet@@@std@@@2@$0A@@std@@@std@@IAE?AV?$_Tree_iterator@V?$_Tree_val@U?$_Tree_simple_types@U?$pair@$$CBV?$basic_string@DU?$char_traits@D@std@@V?$allocator@D@2@@std@@PAVFuzzySet@@@std@@@std@@@std@@@1@_NPAU?$_Tree_node@U?$pair@$$CBV?$basic_string@DU?$char_traits@D@std@@V?$allocator@D@2@@std@@PAVFuzzySet@@@std@@PAX@1@AAU?$pair@$$CBV?$basic_string@DU?$char_traits@D@std@@V?$allocator@D@2@@std@@PAVFuzzySet@@@1@1@Z ; std::_Tree<std::_Tmap_traits<std::basic_string<char,std::char_traits<char>,std::allocator<char> >,FuzzySet *,std::less<std::basic_string<char,std::char_traits<char>,std::allocator<char> > >,std::allocator<std::pair<std::basic_string<char,std::char_traits<char>,std::allocator<char> > const ,FuzzySet *> >,0> >::_Insert_at<std::pair<std::basic_string<char,std::char_traits<char>,std::allocator<char> > const ,FuzzySet *> &,std::_Tree_node<std::pair<std::basic_string<char,std::char_traits<char>,std::allocator<char> > const ,FuzzySet *>,void *> *>
PUBLIC	??$_Insert_nohint@AAU?$pair@$$CBV?$basic_string@DU?$char_traits@D@std@@V?$allocator@D@2@@std@@PAVFuzzySet@@@std@@PAU?$_Tree_node@U?$pair@$$CBV?$basic_string@DU?$char_traits@D@std@@V?$allocator@D@2@@std@@PAVFuzzySet@@@std@@PAX@2@@?$_Tree@V?$_Tmap_traits@V?$basic_string@DU?$char_traits@D@std@@V?$allocator@D@2@@std@@PAVFuzzySet@@U?$less@V?$basic_string@DU?$char_traits@D@std@@V?$allocator@D@2@@std@@@2@V?$allocator@U?$pair@$$CBV?$basic_string@DU?$char_traits@D@std@@V?$allocator@D@2@@std@@PAVFuzzySet@@@std@@@2@$0A@@std@@@std@@IAE?AU?$pair@V?$_Tree_iterator@V?$_Tree_val@U?$_Tree_simple_types@U?$pair@$$CBV?$basic_string@DU?$char_traits@D@std@@V?$allocator@D@2@@std@@PAVFuzzySet@@@std@@@std@@@std@@@std@@_N@1@_NAAU?$pair@$$CBV?$basic_string@DU?$char_traits@D@std@@V?$allocator@D@2@@std@@PAVFuzzySet@@@1@PAU?$_Tree_node@U?$pair@$$CBV?$basic_string@DU?$char_traits@D@std@@V?$allocator@D@2@@std@@PAVFuzzySet@@@std@@PAX@1@@Z ; std::_Tree<std::_Tmap_traits<std::basic_string<char,std::char_traits<char>,std::allocator<char> >,FuzzySet *,std::less<std::basic_string<char,std::char_traits<char>,std::allocator<char> > >,std::allocator<std::pair<std::basic_string<char,std::char_traits<char>,std::allocator<char> > const ,FuzzySet *> >,0> >::_Insert_nohint<std::pair<std::basic_string<char,std::char_traits<char>,std::allocator<char> > const ,FuzzySet *> &,std::_Tree_node<std::pair<std::basic_string<char,std::char_traits<char>,std::allocator<char> > const ,FuzzySet *>,void *> *>
PUBLIC	??$?0U_Exact_args_t@std@@$0A@@?$tuple@$$V@std@@QAE@U_Exact_args_t@1@@Z ; std::tuple<>::tuple<><std::_Exact_args_t,0>
PUBLIC	??$?0ABV?$basic_string@DU?$char_traits@D@std@@V?$allocator@D@2@@std@@@?$_Tuple_val@ABV?$basic_string@DU?$char_traits@D@std@@V?$allocator@D@2@@std@@@std@@QAE@ABV?$basic_string@DU?$char_traits@D@std@@V?$allocator@D@2@@1@@Z ; std::_Tuple_val<std::basic_string<char,std::char_traits<char>,std::allocator<char> > const &>::_Tuple_val<std::basic_string<char,std::char_traits<char>,std::allocator<char> > const &><std::basic_string<char,std::char_traits<char>,std::allocator<char> > const &>
PUBLIC	??$?0ABV?$basic_string@DU?$char_traits@D@std@@V?$allocator@D@2@@std@@$$Z$$V@?$pair@$$CBV?$basic_string@DU?$char_traits@D@std@@V?$allocator@D@2@@std@@PAVFuzzySet@@@std@@QAE@Upiecewise_construct_t@1@V?$tuple@ABV?$basic_string@DU?$char_traits@D@std@@V?$allocator@D@2@@std@@@1@V?$tuple@$$V@1@@Z ; std::pair<std::basic_string<char,std::char_traits<char>,std::allocator<char> > const ,FuzzySet *>::pair<std::basic_string<char,std::char_traits<char>,std::allocator<char> > const ,FuzzySet *><std::basic_string<char,std::char_traits<char>,std::allocator<char> > const &>
PUBLIC	??$_Buy_if_not_node@AAU?$pair@$$CBV?$basic_string@DU?$char_traits@D@std@@V?$allocator@D@2@@std@@PAVFuzzySet@@@std@@@?$_Tree@V?$_Tmap_traits@V?$basic_string@DU?$char_traits@D@std@@V?$allocator@D@2@@std@@PAVFuzzySet@@U?$less@V?$basic_string@DU?$char_traits@D@std@@V?$allocator@D@2@@std@@@2@V?$allocator@U?$pair@$$CBV?$basic_string@DU?$char_traits@D@std@@V?$allocator@D@2@@std@@PAVFuzzySet@@@std@@@2@$0A@@std@@@std@@IAEPAU?$_Tree_node@U?$pair@$$CBV?$basic_string@DU?$char_traits@D@std@@V?$allocator@D@2@@std@@PAVFuzzySet@@@std@@PAX@1@PAU21@AAU?$pair@$$CBV?$basic_string@DU?$char_traits@D@std@@V?$allocator@D@2@@std@@PAVFuzzySet@@@1@@Z ; std::_Tree<std::_Tmap_traits<std::basic_string<char,std::char_traits<char>,std::allocator<char> >,FuzzySet *,std::less<std::basic_string<char,std::char_traits<char>,std::allocator<char> > >,std::allocator<std::pair<std::basic_string<char,std::char_traits<char>,std::allocator<char> > const ,FuzzySet *> >,0> >::_Buy_if_not_node<std::pair<std::basic_string<char,std::char_traits<char>,std::allocator<char> > const ,FuzzySet *> &>
PUBLIC	??$?0V?$tuple@ABV?$basic_string@DU?$char_traits@D@std@@V?$allocator@D@2@@std@@@std@@V?$tuple@$$V@1@$0A@$$Z$S@?$pair@$$CBV?$basic_string@DU?$char_traits@D@std@@V?$allocator@D@2@@std@@PAVFuzzySet@@@std@@QAE@AAV?$tuple@ABV?$basic_string@DU?$char_traits@D@std@@V?$allocator@D@2@@std@@@1@AAV?$tuple@$$V@1@U?$integer_sequence@I$0A@@1@U?$integer_sequence@I$S@1@@Z ; std::pair<std::basic_string<char,std::char_traits<char>,std::allocator<char> > const ,FuzzySet *>::pair<std::basic_string<char,std::char_traits<char>,std::allocator<char> > const ,FuzzySet *><std::tuple<std::basic_string<char,std::char_traits<char>,std::allocator<char> > const &>,std::tuple<>,0>
PUBLIC	??$move@AAV?$tuple@ABV?$basic_string@DU?$char_traits@D@std@@V?$allocator@D@2@@std@@@std@@@std@@YA$$QAV?$tuple@ABV?$basic_string@DU?$char_traits@D@std@@V?$allocator@D@2@@std@@@0@AAV10@@Z ; std::move<std::tuple<std::basic_string<char,std::char_traits<char>,std::allocator<char> > const &> &>
PUBLIC	??$get@$0A@ABV?$basic_string@DU?$char_traits@D@std@@V?$allocator@D@2@@std@@@std@@YAABV?$basic_string@DU?$char_traits@D@std@@V?$allocator@D@2@@0@$$QAV?$tuple@ABV?$basic_string@DU?$char_traits@D@std@@V?$allocator@D@2@@std@@@0@@Z ; std::get<0,std::basic_string<char,std::char_traits<char>,std::allocator<char> > const &>
PUBLIC	??_7exception@std@@6B@				; std::exception::`vftable'
PUBLIC	??_C@_0BC@EOODALEL@Unknown?5exception?$AA@	; `string'
PUBLIC	?_OptionsStorage@?1??__local_stdio_printf_options@@9@4_KA ; `__local_stdio_printf_options'::`2'::_OptionsStorage
PUBLIC	??_C@_1NC@PHKCNFMM@?$AAd?$AA?3?$AA?2?$AAp?$AAr?$AAo?$AAg?$AAr?$AAa?$AAm?$AA?5?$AAf?$AAi?$AAl?$AAe?$AAs?$AA?5?$AA?$CI?$AAx?$AA8?$AA6?$AA?$CJ?$AA?2?$AAm?$AAi?$AAc?$AAr?$AAo?$AAs?$AAo?$AAf?$AAt@ ; `string'
PUBLIC	??_C@_1DC@POOIKBAO@?$AAI?$AAT?$AAE?$AAR?$AAA?$AAT?$AAO?$AAR?$AA?5?$AAL?$AAI?$AAS?$AAT?$AA?5?$AAC?$AAO?$AAR?$AAR?$AAU?$AAP?$AAT?$AAE?$AAD?$AA?$CB?$AA?$AA@ ; `string'
PUBLIC	??_C@_1EE@KLDMFDFL@?$AAs?$AAt?$AAd?$AA?3?$AA?3?$AA_?$AAI?$AAt?$AAe?$AAr?$AAa?$AAt?$AAo?$AAr?$AA_?$AAb?$AAa?$AAs?$AAe?$AA1?$AA2?$AA?3?$AA?3?$AA_?$AAO?$AAr?$AAp?$AAh?$AAa?$AAn?$AA_?$AAm@ ; `string'
PUBLIC	??_C@_1DG@PLBPCAEM@?$AA?$CC?$AAI?$AAT?$AAE?$AAR?$AAA?$AAT?$AAO?$AAR?$AA?5?$AAL?$AAI?$AAS?$AAT?$AA?5?$AAC?$AAO?$AAR?$AAR?$AAU?$AAP?$AAT?$AAE?$AAD?$AA?$CB?$AA?$CC?$AA?$AA@ ; `string'
PUBLIC	??_C@_1NC@KEJAAGP@?$AAd?$AA?3?$AA?2?$AAp?$AAr?$AAo?$AAg?$AAr?$AAa?$AAm?$AA?5?$AAf?$AAi?$AAl?$AAe?$AAs?$AA?5?$AA?$CI?$AAx?$AA8?$AA6?$AA?$CJ?$AA?2?$AAm?$AAi?$AAc?$AAr?$AAo?$AAs?$AAo?$AAf?$AAt@ ; `string'
PUBLIC	??_C@_1EK@NIFDJFDG@?$AAs?$AAt?$AAd?$AA?3?$AA?3?$AA_?$AAA?$AAd?$AAj?$AAu?$AAs?$AAt?$AA_?$AAm?$AAa?$AAn?$AAu?$AAa?$AAl?$AAl?$AAy?$AA_?$AAv?$AAe?$AAc?$AAt?$AAo?$AAr?$AA_?$AAa?$AAl?$AAi@ ; `string'
PUBLIC	??_C@_1CG@JNLFBNGN@?$AA?$CC?$AAi?$AAn?$AAv?$AAa?$AAl?$AAi?$AAd?$AA?5?$AAa?$AAr?$AAg?$AAu?$AAm?$AAe?$AAn?$AAt?$AA?$CC?$AA?$AA@ ; `string'
PUBLIC	??_7runtime_error@std@@6B@			; std::runtime_error::`vftable'
PUBLIC	??_7bad_cast@std@@6B@				; std::bad_cast::`vftable'
PUBLIC	??_C@_08EPJLHIJG@bad?5cast?$AA@			; `string'
PUBLIC	__TI2?AVruntime_error@std@@
PUBLIC	__CTA2?AVruntime_error@std@@
PUBLIC	??_R0?AVruntime_error@std@@@8			; std::runtime_error `RTTI Type Descriptor'
PUBLIC	__CT??_R0?AVruntime_error@std@@@8??0runtime_error@std@@QAE@ABV01@@Z12
PUBLIC	??_R0?AVexception@std@@@8			; std::exception `RTTI Type Descriptor'
PUBLIC	__CT??_R0?AVexception@std@@@8??0exception@std@@QAE@ABV01@@Z12
PUBLIC	??_C@_0BA@ELKIONDK@bad?5locale?5name?$AA@	; `string'
PUBLIC	??_C@_05LAPONLG@false?$AA@			; `string'
PUBLIC	??_C@_04LOAJBDKD@true?$AA@			; `string'
PUBLIC	??_7_Facet_base@std@@6B@			; std::_Facet_base::`vftable'
PUBLIC	??_C@_0GI@GIPFKNJJ@d?3?2program?5files?5?$CIx86?$CJ?2microsoft@ ; `string'
PUBLIC	??_7facet@locale@std@@6B@			; std::locale::facet::`vftable'
PUBLIC	??_C@_00CNPNBAHC@?$AA@				; `string'
PUBLIC	??_C@_1NA@EHCBFFEP@?$AAd?$AA?3?$AA?2?$AAp?$AAr?$AAo?$AAg?$AAr?$AAa?$AAm?$AA?5?$AAf?$AAi?$AAl?$AAe?$AAs?$AA?5?$AA?$CI?$AAx?$AA8?$AA6?$AA?$CJ?$AA?2?$AAm?$AAi?$AAc?$AAr?$AAo?$AAs?$AAo?$AAf?$AAt@ ; `string'
PUBLIC	??_7ctype_base@std@@6B@				; std::ctype_base::`vftable'
PUBLIC	??_7?$ctype@D@std@@6B@				; std::ctype<char>::`vftable'
PUBLIC	??_7_System_error@std@@6B@			; std::_System_error::`vftable'
PUBLIC	??_C@_02LMMGGCAJ@?3?5?$AA@			; `string'
PUBLIC	??_7system_error@std@@6B@			; std::system_error::`vftable'
PUBLIC	??_7_Generic_error_category@std@@6B@		; std::_Generic_error_category::`vftable'
PUBLIC	??_C@_07DCLBNMLN@generic?$AA@			; `string'
PUBLIC	??_7_Iostream_error_category@std@@6B@		; std::_Iostream_error_category::`vftable'
PUBLIC	??_C@_08LLGCOLLL@iostream?$AA@			; `string'
PUBLIC	??_C@_0BG@PADBLCHM@iostream?5stream?5error?$AA@	; `string'
PUBLIC	??_7failure@ios_base@std@@6B@			; std::ios_base::failure::`vftable'
PUBLIC	__TI5?AVfailure@ios_base@std@@
PUBLIC	__CTA5?AVfailure@ios_base@std@@
PUBLIC	??_R0?AVfailure@ios_base@std@@@8		; std::ios_base::failure `RTTI Type Descriptor'
PUBLIC	__CT??_R0?AVfailure@ios_base@std@@@8??0failure@ios_base@std@@QAE@ABV012@@Z20
PUBLIC	??_R0?AVsystem_error@std@@@8			; std::system_error `RTTI Type Descriptor'
PUBLIC	__CT??_R0?AVsystem_error@std@@@8??0system_error@std@@QAE@ABV01@@Z20
PUBLIC	??_R0?AV_System_error@std@@@8			; std::_System_error `RTTI Type Descriptor'
PUBLIC	__CT??_R0?AV_System_error@std@@@8??0_System_error@std@@QAE@ABV01@@Z20
PUBLIC	??_C@_0BF@PHHKMMFD@ios_base?3?3badbit?5set?$AA@	; `string'
PUBLIC	??_C@_0BG@FMKFHCIL@ios_base?3?3failbit?5set?$AA@ ; `string'
PUBLIC	??_C@_0BF@OOHOMBOF@ios_base?3?3eofbit?5set?$AA@	; `string'
PUBLIC	??_7FuzzyTerm@@6B@				; FuzzyTerm::`vftable'
PUBLIC	??_7FuzzySet@@6B@				; FuzzySet::`vftable'
PUBLIC	??_C@_0CC@DAIEIJMF@?$DMFuzzySet?3?3SetDOM?$DO?3?5invalid?5valu@ ; `string'
PUBLIC	??_C@_1IO@FJPBELPO@?$AAd?$AA?3?$AA?2?$AAi?$AAa?$AA?5?$AAj?$AAe?$AAu?$AAx?$AA?5?$AAv?$AAi?$AAd?$AA?i?$AAo?$AA?2?$AAp?$AAr?$AAo?$AAj?$AAe?$AAt?$AAs?$AA?2?$AAu?$AAq?$AAa?$AAc?$AA_?$AAi?$AAa@ ; `string'
PUBLIC	??_C@_1HO@GLDMFMBC@?$AA?$CI?$AAv?$AAa?$AAl?$AA?5?$AA?$DM?$AA?$DN?$AA1?$AA?$CJ?$AA?5?$AA?$CG?$AA?$CG?$AA?5?$AA?$CI?$AAv?$AAa?$AAl?$AA?5?$AA?$DO?$AA?$DN?$AA?5?$AA0?$AA?$CJ?$AA?5?$AA?$CG?$AA?$CG?$AA?5?$AA?$CC?$AA?$DM?$AAF?$AAu?$AAz@ ; `string'
PUBLIC	??_7FuzzySet_Triangle@@6B@			; FuzzySet_Triangle::`vftable'
PUBLIC	??_7FuzzySet_LeftShoulder@@6B@			; FuzzySet_LeftShoulder::`vftable'
PUBLIC	??_7FuzzySet_RightShoulder@@6B@			; FuzzySet_RightShoulder::`vftable'
PUBLIC	??_7FuzzySet_Singleton@@6B@			; FuzzySet_Singleton::`vftable'
PUBLIC	??_7FzSet@@6B@					; FzSet::`vftable'
PUBLIC	??_C@_1MM@MDHNIKFI@?$AAd?$AA?3?$AA?2?$AAp?$AAr?$AAo?$AAg?$AAr?$AAa?$AAm?$AA?5?$AAf?$AAi?$AAl?$AAe?$AAs?$AA?5?$AA?$CI?$AAx?$AA8?$AA6?$AA?$CJ?$AA?2?$AAm?$AAi?$AAc?$AAr?$AAo?$AAs?$AAo?$AAf?$AAt@ ; `string'
PUBLIC	??_C@_1EG@EHJFMBHJ@?$AAm?$AAa?$AAp?$AA?1?$AAs?$AAe?$AAt?$AA?5?$AAi?$AAt?$AAe?$AAr?$AAa?$AAt?$AAo?$AAr?$AA?5?$AAn?$AAo?$AAt?$AA?5?$AAi?$AAn?$AAc?$AAr?$AAe?$AAm?$AAe?$AAn?$AAt?$AAa?$AAb@ ; `string'
PUBLIC	??_C@_1BMG@BIOBHECP@?$AAs?$AAt?$AAd?$AA?3?$AA?3?$AA_?$AAT?$AAr?$AAe?$AAe?$AA_?$AAc?$AAo?$AAn?$AAs?$AAt?$AA_?$AAi?$AAt?$AAe?$AAr?$AAa?$AAt?$AAo?$AAr?$AA?$DM?$AAc?$AAl?$AAa?$AAs?$AAs?$AA?5@ ; `string'
PUBLIC	??_C@_1EK@BCPDGOMC@?$AA?$CC?$AAm?$AAa?$AAp?$AA?1?$AAs?$AAe?$AAt?$AA?5?$AAi?$AAt?$AAe?$AAr?$AAa?$AAt?$AAo?$AAr?$AA?5?$AAn?$AAo?$AAt?$AA?5?$AAi?$AAn?$AAc?$AAr?$AAe?$AAm?$AAe?$AAn?$AAt?$AAa@ ; `string'
PUBLIC	??_C@_1NA@PGMFAMME@?$AAd?$AA?3?$AA?2?$AAp?$AAr?$AAo?$AAg?$AAr?$AAa?$AAm?$AA?5?$AAf?$AAi?$AAl?$AAe?$AAs?$AA?5?$AA?$CI?$AAx?$AA8?$AA6?$AA?$CJ?$AA?2?$AAm?$AAi?$AAc?$AAr?$AAo?$AAs?$AAo?$AAf?$AAt@ ; `string'
PUBLIC	??_C@_1DM@GMPLOCPK@?$AAs?$AAt?$AAr?$AAi?$AAn?$AAg?$AA?5?$AAs?$AAu?$AAb?$AAs?$AAc?$AAr?$AAi?$AAp?$AAt?$AA?5?$AAo?$AAu?$AAt?$AA?5?$AAo?$AAf?$AA?5?$AAr?$AAa?$AAn?$AAg?$AAe?$AA?$AA@ ; `string'
PUBLIC	??_C@_1LO@NPPEKPAI@?$AAs?$AAt?$AAd?$AA?3?$AA?3?$AAb?$AAa?$AAs?$AAi?$AAc?$AA_?$AAs?$AAt?$AAr?$AAi?$AAn?$AAg?$AA?$DM?$AAc?$AAh?$AAa?$AAr?$AA?0?$AAs?$AAt?$AAr?$AAu?$AAc?$AAt?$AA?5?$AAs?$AAt@ ; `string'
PUBLIC	??_C@_1EA@OADAPGGK@?$AA?$CC?$AAs?$AAt?$AAr?$AAi?$AAn?$AAg?$AA?5?$AAs?$AAu?$AAb?$AAs?$AAc?$AAr?$AAi?$AAp?$AAt?$AA?5?$AAo?$AAu?$AAt?$AA?5?$AAo?$AAf?$AA?5?$AAr?$AAa?$AAn?$AAg?$AAe?$AA?$CC?$AA?$AA@ ; `string'
PUBLIC	?id@?$num_put@DV?$ostreambuf_iterator@DU?$char_traits@D@std@@@std@@@std@@2V0locale@2@A ; std::num_put<char,std::ostreambuf_iterator<char,std::char_traits<char> > >::id
PUBLIC	??_7?$num_put@DV?$ostreambuf_iterator@DU?$char_traits@D@std@@@std@@@std@@6B@ ; std::num_put<char,std::ostreambuf_iterator<char,std::char_traits<char> > >::`vftable'
PUBLIC	??_C@_02BBAHNLBA@?$CFp?$AA@			; `string'
PUBLIC	??_C@_02CLHGNPPK@Lu?$AA@			; `string'
PUBLIC	??_C@_02HIKPPMOK@Ld?$AA@			; `string'
PUBLIC	??_C@_02BDDLJJBK@lu?$AA@			; `string'
PUBLIC	??_C@_02EAOCLKAK@ld?$AA@			; `string'
PUBLIC	?id@?$numpunct@D@std@@2V0locale@2@A		; std::numpunct<char>::id
PUBLIC	??_7?$numpunct@D@std@@6B@			; std::numpunct<char>::`vftable'
PUBLIC	??_C@_1DO@CFEEPGGJ@?$AAm?$AAa?$AAp?$AA?1?$AAs?$AAe?$AAt?$AA?5?$AAi?$AAt?$AAe?$AAr?$AAa?$AAt?$AAo?$AAr?$AAs?$AA?5?$AAi?$AAn?$AAc?$AAo?$AAm?$AAp?$AAa?$AAt?$AAi?$AAb?$AAl?$AAe?$AA?$AA@ ; `string'
PUBLIC	??_C@_1BMG@LIBMJNOK@?$AAs?$AAt?$AAd?$AA?3?$AA?3?$AA_?$AAT?$AAr?$AAe?$AAe?$AA_?$AAc?$AAo?$AAn?$AAs?$AAt?$AA_?$AAi?$AAt?$AAe?$AAr?$AAa?$AAt?$AAo?$AAr?$AA?$DM?$AAc?$AAl?$AAa?$AAs?$AAs?$AA?5@ ; `string'
PUBLIC	??_C@_1EC@JLIDLCDH@?$AA?$CC?$AAm?$AAa?$AAp?$AA?1?$AAs?$AAe?$AAt?$AA?5?$AAi?$AAt?$AAe?$AAr?$AAa?$AAt?$AAo?$AAr?$AAs?$AA?5?$AAi?$AAn?$AAc?$AAo?$AAm?$AAp?$AAa?$AAt?$AAi?$AAb?$AAl?$AAe?$AA?$CC@ ; `string'
PUBLIC	??_C@_1EI@FHEHNNNM@?$AAm?$AAa?$AAp?$AA?1?$AAs?$AAe?$AAt?$AA?5?$AAi?$AAt?$AAe?$AAr?$AAa?$AAt?$AAo?$AAr?$AA?5?$AAn?$AAo?$AAt?$AA?5?$AAd?$AAe?$AAr?$AAe?$AAf?$AAe?$AAr?$AAe?$AAn?$AAc?$AAa@ ; `string'
PUBLIC	??_C@_1BME@EOFAGODJ@?$AAs?$AAt?$AAd?$AA?3?$AA?3?$AA_?$AAT?$AAr?$AAe?$AAe?$AA_?$AAc?$AAo?$AAn?$AAs?$AAt?$AA_?$AAi?$AAt?$AAe?$AAr?$AAa?$AAt?$AAo?$AAr?$AA?$DM?$AAc?$AAl?$AAa?$AAs?$AAs?$AA?5@ ; `string'
PUBLIC	??_C@_1EM@KEKCOCNI@?$AA?$CC?$AAm?$AAa?$AAp?$AA?1?$AAs?$AAe?$AAt?$AA?5?$AAi?$AAt?$AAe?$AAr?$AAa?$AAt?$AAo?$AAr?$AA?5?$AAn?$AAo?$AAt?$AA?5?$AAd?$AAe?$AAr?$AAe?$AAf?$AAe?$AAr?$AAe?$AAn?$AAc@ ; `string'
PUBLIC	??_C@_02MDKMJEGG@eE?$AA@			; `string'
PUBLIC	??_C@_02OOPEBDOJ@pP?$AA@			; `string'
PUBLIC	??_C@_01LFCBOECM@?4?$AA@			; `string'
PUBLIC	??_C@_1EK@PPDBPCAN@?$AAm?$AAa?$AAp?$AA?1?$AAs?$AAe?$AAt?$AA?5?$AAe?$AAr?$AAa?$AAs?$AAe?$AA?5?$AAi?$AAt?$AAe?$AAr?$AAa?$AAt?$AAo?$AAr?$AA?5?$AAo?$AAu?$AAt?$AAs?$AAi?$AAd?$AAe?$AA?5?$AAr@ ; `string'
PUBLIC	??_C@_1DDI@BDFFOCMO@?$AAs?$AAt?$AAd?$AA?3?$AA?3?$AA_?$AAT?$AAr?$AAe?$AAe?$AA?$DM?$AAc?$AAl?$AAa?$AAs?$AAs?$AA?5?$AAs?$AAt?$AAd?$AA?3?$AA?3?$AA_?$AAT?$AAm?$AAa?$AAp?$AA_?$AAt?$AAr?$AAa?$AAi@ ; `string'
PUBLIC	??_C@_1EO@CEDAEPC@?$AA?$CC?$AAm?$AAa?$AAp?$AA?1?$AAs?$AAe?$AAt?$AA?5?$AAe?$AAr?$AAa?$AAs?$AAe?$AA?5?$AAi?$AAt?$AAe?$AAr?$AAa?$AAt?$AAo?$AAr?$AA?5?$AAo?$AAu?$AAt?$AAs?$AAi?$AAd?$AAe?$AA?5@ ; `string'
PUBLIC	??_C@_1BHM@JKBKHKPD@?$AAs?$AAt?$AAd?$AA?3?$AA?3?$AA_?$AAT?$AAr?$AAe?$AAe?$AA_?$AAv?$AAa?$AAl?$AA?$DM?$AAs?$AAt?$AAr?$AAu?$AAc?$AAt?$AA?5?$AAs?$AAt?$AAd?$AA?3?$AA?3?$AA_?$AAT?$AAr?$AAe?$AAe@ ; `string'
PUBLIC	??_C@_0BI@CFPLBAOH@invalid?5string?5position?$AA@ ; `string'
PUBLIC	?_Psave@?$_Facetptr@V?$ctype@D@std@@@std@@2PBVfacet@locale@2@B ; std::_Facetptr<std::ctype<char> >::_Psave
PUBLIC	__TI2?AVbad_cast@std@@
PUBLIC	__CTA2?AVbad_cast@std@@
PUBLIC	??_R0?AVbad_cast@std@@@8			; std::bad_cast `RTTI Type Descriptor'
PUBLIC	__CT??_R0?AVbad_cast@std@@@8??0bad_cast@std@@QAE@ABV01@@Z12
PUBLIC	?_Flag@?1???$_Immortalize@V_Iostream_error_category@std@@@std@@YAAAV_Iostream_error_category@1@XZ@4PAXA ; `std::_Immortalize<std::_Iostream_error_category>'::`2'::_Flag
PUBLIC	?_Storage@?1???$_Immortalize@V_Iostream_error_category@std@@@std@@YAAAV_Iostream_error_category@1@XZ@4T?$_Align_type@H$07@1@A ; `std::_Immortalize<std::_Iostream_error_category>'::`2'::_Storage
PUBLIC	?_Psave@?$_Facetptr@V?$num_put@DV?$ostreambuf_iterator@DU?$char_traits@D@std@@@std@@@std@@@std@@2PBVfacet@locale@2@B ; std::_Facetptr<std::num_put<char,std::ostreambuf_iterator<char,std::char_traits<char> > > >::_Psave
PUBLIC	?_Psave@?$_Facetptr@V?$numpunct@D@std@@@std@@2PBVfacet@locale@2@B ; std::_Facetptr<std::numpunct<char> >::_Psave
PUBLIC	??_C@_0BA@JFNIOLAK@string?5too?5long?$AA@	; `string'
PUBLIC	??_C@_1CO@DGLIKNHI@?$AAi?$AAn?$AAv?$AAa?$AAl?$AAi?$AAd?$AA?5?$AAi?$AAt?$AAe?$AAr?$AAa?$AAt?$AAo?$AAr?$AA?5?$AAr?$AAa?$AAn?$AAg?$AAe?$AA?$AA@ ; `string'
PUBLIC	??_C@_1CG@MDICLDJA@?$AAs?$AAt?$AAd?$AA?3?$AA?3?$AA_?$AAD?$AAe?$AAb?$AAu?$AAg?$AA_?$AAr?$AAa?$AAn?$AAg?$AAe?$AA2?$AA?$AA@ ; `string'
PUBLIC	??_C@_1DC@CHPPODDE@?$AA?$CC?$AAi?$AAn?$AAv?$AAa?$AAl?$AAi?$AAd?$AA?5?$AAi?$AAt?$AAe?$AAr?$AAa?$AAt?$AAo?$AAr?$AA?5?$AAr?$AAa?$AAn?$AAg?$AAe?$AA?$CC?$AA?$AA@ ; `string'
PUBLIC	??_C@_1MI@NCEPAGEA@?$AAd?$AA?3?$AA?2?$AAp?$AAr?$AAo?$AAg?$AAr?$AAa?$AAm?$AA?5?$AAf?$AAi?$AAl?$AAe?$AAs?$AA?5?$AA?$CI?$AAx?$AA8?$AA6?$AA?$CJ?$AA?2?$AAm?$AAi?$AAc?$AAr?$AAo?$AAs?$AAo?$AAf?$AAt@ ; `string'
PUBLIC	??_C@_0BE@LMNLACIC@_Ptr_container?5?$CB?$DN?50?$AA@ ; `string'
PUBLIC	??_C@_1DG@HGDKEBPG@?$AA?$CC?$AA_?$AAP?$AAt?$AAr?$AA_?$AAc?$AAo?$AAn?$AAt?$AAa?$AAi?$AAn?$AAe?$AAr?$AA?5?$AA?$CB?$AA?$DN?$AA?5?$AA0?$AA?$CC?$AA?5?$AA?$CG?$AA?$CG?$AA?5?$AA0?$AA?$AA@ ; `string'
PUBLIC	??_C@_17CNPHIMPH@?$AA?$CF?$AAl?$AAs?$AA?$AA@	; `string'
PUBLIC	??_C@_1EO@GFNCMDLA@?$AAs?$AAt?$AAd?$AA?3?$AA?3?$AA_?$AAA?$AAl?$AAl?$AAo?$AAc?$AAa?$AAt?$AAe?$AA_?$AAm?$AAa?$AAn?$AAu?$AAa?$AAl?$AAl?$AAy?$AA_?$AAv?$AAe?$AAc?$AAt?$AAo?$AAr?$AA_?$AAa@ ; `string'
PUBLIC	??_C@_1CG@LEJCKCBB@?$AAi?$AAn?$AAv?$AAa?$AAl?$AAi?$AAd?$AA?5?$AAc?$AAo?$AAm?$AAp?$AAa?$AAr?$AAa?$AAt?$AAo?$AAr?$AA?$AA@ ; `string'
PUBLIC	??_C@_1CI@JONCLBEJ@?$AAs?$AAt?$AAd?$AA?3?$AA?3?$AA_?$AAD?$AAe?$AAb?$AAu?$AAg?$AA_?$AAl?$AAt?$AA_?$AAp?$AAr?$AAe?$AAd?$AA?$AA@ ; `string'
PUBLIC	??_C@_1CK@NDNHPKPI@?$AA?$CC?$AAi?$AAn?$AAv?$AAa?$AAl?$AAi?$AAd?$AA?5?$AAc?$AAo?$AAm?$AAp?$AAa?$AAr?$AAa?$AAt?$AAo?$AAr?$AA?$CC?$AA?$AA@ ; `string'
PUBLIC	??_C@_1EM@MHOKKPFH@?$AAm?$AAa?$AAp?$AA?1?$AAs?$AAe?$AAt?$AA?5?$AAi?$AAn?$AAs?$AAe?$AAr?$AAt?$AA?5?$AAi?$AAt?$AAe?$AAr?$AAa?$AAt?$AAo?$AAr?$AA?5?$AAo?$AAu?$AAt?$AAs?$AAi?$AAd?$AAe?$AA?5@ ; `string'
PUBLIC	??_C@_1DEG@NIFFMAGA@?$AAs?$AAt?$AAd?$AA?3?$AA?3?$AA_?$AAT?$AAr?$AAe?$AAe?$AA?$DM?$AAc?$AAl?$AAa?$AAs?$AAs?$AA?5?$AAs?$AAt?$AAd?$AA?3?$AA?3?$AA_?$AAT?$AAm?$AAa?$AAp?$AA_?$AAt?$AAr?$AAa?$AAi@ ; `string'
PUBLIC	??_C@_1FA@HNFOKDLB@?$AA?$CC?$AAm?$AAa?$AAp?$AA?1?$AAs?$AAe?$AAt?$AA?5?$AAi?$AAn?$AAs?$AAe?$AAr?$AAt?$AA?5?$AAi?$AAt?$AAe?$AAr?$AAa?$AAt?$AAo?$AAr?$AA?5?$AAo?$AAu?$AAt?$AAs?$AAi?$AAd?$AAe@ ; `string'
PUBLIC	??_C@_1EG@OKCGOALM@?$AAm?$AAa?$AAp?$AA?1?$AAs?$AAe?$AAt?$AA?5?$AAi?$AAt?$AAe?$AAr?$AAa?$AAt?$AAo?$AAr?$AA?5?$AAn?$AAo?$AAt?$AA?5?$AAd?$AAe?$AAc?$AAr?$AAe?$AAm?$AAe?$AAn?$AAt?$AAa?$AAb@ ; `string'
PUBLIC	??_C@_1BMG@OLNDMIOO@?$AAs?$AAt?$AAd?$AA?3?$AA?3?$AA_?$AAT?$AAr?$AAe?$AAe?$AA_?$AAc?$AAo?$AAn?$AAs?$AAt?$AA_?$AAi?$AAt?$AAe?$AAr?$AAa?$AAt?$AAo?$AAr?$AA?$DM?$AAc?$AAl?$AAa?$AAs?$AAs?$AA?5@ ; `string'
PUBLIC	??_C@_1EK@OIBHPACE@?$AA?$CC?$AAm?$AAa?$AAp?$AA?1?$AAs?$AAe?$AAt?$AA?5?$AAi?$AAt?$AAe?$AAr?$AAa?$AAt?$AAo?$AAr?$AA?5?$AAn?$AAo?$AAt?$AA?5?$AAd?$AAe?$AAc?$AAr?$AAe?$AAm?$AAe?$AAn?$AAt?$AAa@ ; `string'
PUBLIC	??_C@_0BE@JONHPENG@map?1set?$DMT?$DO?5too?5long?$AA@ ; `string'
PUBLIC	??_R4exception@std@@6B@				; std::exception::`RTTI Complete Object Locator'
PUBLIC	??_R3exception@std@@8				; std::exception::`RTTI Class Hierarchy Descriptor'
PUBLIC	??_R2exception@std@@8				; std::exception::`RTTI Base Class Array'
PUBLIC	??_R1A@?0A@EA@exception@std@@8			; std::exception::`RTTI Base Class Descriptor at (0,-1,0,64)'
PUBLIC	??_R4runtime_error@std@@6B@			; std::runtime_error::`RTTI Complete Object Locator'
PUBLIC	??_R3runtime_error@std@@8			; std::runtime_error::`RTTI Class Hierarchy Descriptor'
PUBLIC	??_R2runtime_error@std@@8			; std::runtime_error::`RTTI Base Class Array'
PUBLIC	??_R1A@?0A@EA@runtime_error@std@@8		; std::runtime_error::`RTTI Base Class Descriptor at (0,-1,0,64)'
PUBLIC	??_R4bad_cast@std@@6B@				; std::bad_cast::`RTTI Complete Object Locator'
PUBLIC	??_R3bad_cast@std@@8				; std::bad_cast::`RTTI Class Hierarchy Descriptor'
PUBLIC	??_R2bad_cast@std@@8				; std::bad_cast::`RTTI Base Class Array'
PUBLIC	??_R1A@?0A@EA@bad_cast@std@@8			; std::bad_cast::`RTTI Base Class Descriptor at (0,-1,0,64)'
PUBLIC	??_R4_Facet_base@std@@6B@			; std::_Facet_base::`RTTI Complete Object Locator'
PUBLIC	??_R0?AV_Facet_base@std@@@8			; std::_Facet_base `RTTI Type Descriptor'
PUBLIC	??_R3_Facet_base@std@@8				; std::_Facet_base::`RTTI Class Hierarchy Descriptor'
PUBLIC	??_R2_Facet_base@std@@8				; std::_Facet_base::`RTTI Base Class Array'
PUBLIC	??_R1A@?0A@EA@_Facet_base@std@@8		; std::_Facet_base::`RTTI Base Class Descriptor at (0,-1,0,64)'
PUBLIC	??_R1A@?0A@EA@facet@locale@std@@8		; std::locale::facet::`RTTI Base Class Descriptor at (0,-1,0,64)'
PUBLIC	??_R0?AVfacet@locale@std@@@8			; std::locale::facet `RTTI Type Descriptor'
PUBLIC	??_R3facet@locale@std@@8			; std::locale::facet::`RTTI Class Hierarchy Descriptor'
PUBLIC	??_R2facet@locale@std@@8			; std::locale::facet::`RTTI Base Class Array'
PUBLIC	??_R13?0A@EA@_Crt_new_delete@std@@8		; std::_Crt_new_delete::`RTTI Base Class Descriptor at (4,-1,0,64)'
PUBLIC	??_R0?AU_Crt_new_delete@std@@@8			; std::_Crt_new_delete `RTTI Type Descriptor'
PUBLIC	??_R3_Crt_new_delete@std@@8			; std::_Crt_new_delete::`RTTI Class Hierarchy Descriptor'
PUBLIC	??_R2_Crt_new_delete@std@@8			; std::_Crt_new_delete::`RTTI Base Class Array'
PUBLIC	??_R1A@?0A@EA@_Crt_new_delete@std@@8		; std::_Crt_new_delete::`RTTI Base Class Descriptor at (0,-1,0,64)'
PUBLIC	??_R4facet@locale@std@@6B@			; std::locale::facet::`RTTI Complete Object Locator'
PUBLIC	??_R4ctype_base@std@@6B@			; std::ctype_base::`RTTI Complete Object Locator'
PUBLIC	??_R0?AUctype_base@std@@@8			; std::ctype_base `RTTI Type Descriptor'
PUBLIC	??_R3ctype_base@std@@8				; std::ctype_base::`RTTI Class Hierarchy Descriptor'
PUBLIC	??_R2ctype_base@std@@8				; std::ctype_base::`RTTI Base Class Array'
PUBLIC	??_R1A@?0A@EA@ctype_base@std@@8			; std::ctype_base::`RTTI Base Class Descriptor at (0,-1,0,64)'
PUBLIC	??_R4?$ctype@D@std@@6B@				; std::ctype<char>::`RTTI Complete Object Locator'
PUBLIC	??_R0?AV?$ctype@D@std@@@8			; std::ctype<char> `RTTI Type Descriptor'
PUBLIC	??_R3?$ctype@D@std@@8				; std::ctype<char>::`RTTI Class Hierarchy Descriptor'
PUBLIC	??_R2?$ctype@D@std@@8				; std::ctype<char>::`RTTI Base Class Array'
PUBLIC	??_R1A@?0A@EA@?$ctype@D@std@@8			; std::ctype<char>::`RTTI Base Class Descriptor at (0,-1,0,64)'
PUBLIC	??_R0?AVerror_category@std@@@8			; std::error_category `RTTI Type Descriptor'
PUBLIC	??_R3error_category@std@@8			; std::error_category::`RTTI Class Hierarchy Descriptor'
PUBLIC	??_R2error_category@std@@8			; std::error_category::`RTTI Base Class Array'
PUBLIC	??_R1A@?0A@EA@error_category@std@@8		; std::error_category::`RTTI Base Class Descriptor at (0,-1,0,64)'
PUBLIC	??_R4_System_error@std@@6B@			; std::_System_error::`RTTI Complete Object Locator'
PUBLIC	??_R3_System_error@std@@8			; std::_System_error::`RTTI Class Hierarchy Descriptor'
PUBLIC	??_R2_System_error@std@@8			; std::_System_error::`RTTI Base Class Array'
PUBLIC	??_R1A@?0A@EA@_System_error@std@@8		; std::_System_error::`RTTI Base Class Descriptor at (0,-1,0,64)'
PUBLIC	??_R4system_error@std@@6B@			; std::system_error::`RTTI Complete Object Locator'
PUBLIC	??_R3system_error@std@@8			; std::system_error::`RTTI Class Hierarchy Descriptor'
PUBLIC	??_R2system_error@std@@8			; std::system_error::`RTTI Base Class Array'
PUBLIC	??_R1A@?0A@EA@system_error@std@@8		; std::system_error::`RTTI Base Class Descriptor at (0,-1,0,64)'
PUBLIC	??_R4_Generic_error_category@std@@6B@		; std::_Generic_error_category::`RTTI Complete Object Locator'
PUBLIC	??_R0?AV_Generic_error_category@std@@@8		; std::_Generic_error_category `RTTI Type Descriptor'
PUBLIC	??_R3_Generic_error_category@std@@8		; std::_Generic_error_category::`RTTI Class Hierarchy Descriptor'
PUBLIC	??_R2_Generic_error_category@std@@8		; std::_Generic_error_category::`RTTI Base Class Array'
PUBLIC	??_R1A@?0A@EA@_Generic_error_category@std@@8	; std::_Generic_error_category::`RTTI Base Class Descriptor at (0,-1,0,64)'
PUBLIC	??_R4_Iostream_error_category@std@@6B@		; std::_Iostream_error_category::`RTTI Complete Object Locator'
PUBLIC	??_R0?AV_Iostream_error_category@std@@@8	; std::_Iostream_error_category `RTTI Type Descriptor'
PUBLIC	??_R3_Iostream_error_category@std@@8		; std::_Iostream_error_category::`RTTI Class Hierarchy Descriptor'
PUBLIC	??_R2_Iostream_error_category@std@@8		; std::_Iostream_error_category::`RTTI Base Class Array'
PUBLIC	??_R1A@?0A@EA@_Iostream_error_category@std@@8	; std::_Iostream_error_category::`RTTI Base Class Descriptor at (0,-1,0,64)'
PUBLIC	??_R4failure@ios_base@std@@6B@			; std::ios_base::failure::`RTTI Complete Object Locator'
PUBLIC	??_R3failure@ios_base@std@@8			; std::ios_base::failure::`RTTI Class Hierarchy Descriptor'
PUBLIC	??_R2failure@ios_base@std@@8			; std::ios_base::failure::`RTTI Base Class Array'
PUBLIC	??_R1A@?0A@EA@failure@ios_base@std@@8		; std::ios_base::failure::`RTTI Base Class Descriptor at (0,-1,0,64)'
PUBLIC	??_R4FuzzySet@@6B@				; FuzzySet::`RTTI Complete Object Locator'
PUBLIC	??_R0?AVFuzzySet@@@8				; FuzzySet `RTTI Type Descriptor'
PUBLIC	??_R3FuzzySet@@8				; FuzzySet::`RTTI Class Hierarchy Descriptor'
PUBLIC	??_R2FuzzySet@@8				; FuzzySet::`RTTI Base Class Array'
PUBLIC	??_R1A@?0A@EA@FuzzySet@@8			; FuzzySet::`RTTI Base Class Descriptor at (0,-1,0,64)'
PUBLIC	??_R4FzSet@@6B@					; FzSet::`RTTI Complete Object Locator'
PUBLIC	??_R0?AVFzSet@@@8				; FzSet `RTTI Type Descriptor'
PUBLIC	??_R3FzSet@@8					; FzSet::`RTTI Class Hierarchy Descriptor'
PUBLIC	??_R2FzSet@@8					; FzSet::`RTTI Base Class Array'
PUBLIC	??_R1A@?0A@EA@FzSet@@8				; FzSet::`RTTI Base Class Descriptor at (0,-1,0,64)'
PUBLIC	??_R1A@?0A@EA@FuzzyTerm@@8			; FuzzyTerm::`RTTI Base Class Descriptor at (0,-1,0,64)'
PUBLIC	??_R0?AVFuzzyTerm@@@8				; FuzzyTerm `RTTI Type Descriptor'
PUBLIC	??_R3FuzzyTerm@@8				; FuzzyTerm::`RTTI Class Hierarchy Descriptor'
PUBLIC	??_R2FuzzyTerm@@8				; FuzzyTerm::`RTTI Base Class Array'
PUBLIC	??_R4FuzzyTerm@@6B@				; FuzzyTerm::`RTTI Complete Object Locator'
PUBLIC	??_R4FuzzySet_Triangle@@6B@			; FuzzySet_Triangle::`RTTI Complete Object Locator'
PUBLIC	??_R0?AVFuzzySet_Triangle@@@8			; FuzzySet_Triangle `RTTI Type Descriptor'
PUBLIC	??_R3FuzzySet_Triangle@@8			; FuzzySet_Triangle::`RTTI Class Hierarchy Descriptor'
PUBLIC	??_R2FuzzySet_Triangle@@8			; FuzzySet_Triangle::`RTTI Base Class Array'
PUBLIC	??_R1A@?0A@EA@FuzzySet_Triangle@@8		; FuzzySet_Triangle::`RTTI Base Class Descriptor at (0,-1,0,64)'
PUBLIC	??_R4FuzzySet_LeftShoulder@@6B@			; FuzzySet_LeftShoulder::`RTTI Complete Object Locator'
PUBLIC	??_R0?AVFuzzySet_LeftShoulder@@@8		; FuzzySet_LeftShoulder `RTTI Type Descriptor'
PUBLIC	??_R3FuzzySet_LeftShoulder@@8			; FuzzySet_LeftShoulder::`RTTI Class Hierarchy Descriptor'
PUBLIC	??_R2FuzzySet_LeftShoulder@@8			; FuzzySet_LeftShoulder::`RTTI Base Class Array'
PUBLIC	??_R1A@?0A@EA@FuzzySet_LeftShoulder@@8		; FuzzySet_LeftShoulder::`RTTI Base Class Descriptor at (0,-1,0,64)'
PUBLIC	??_R4FuzzySet_RightShoulder@@6B@		; FuzzySet_RightShoulder::`RTTI Complete Object Locator'
PUBLIC	??_R0?AVFuzzySet_RightShoulder@@@8		; FuzzySet_RightShoulder `RTTI Type Descriptor'
PUBLIC	??_R3FuzzySet_RightShoulder@@8			; FuzzySet_RightShoulder::`RTTI Class Hierarchy Descriptor'
PUBLIC	??_R2FuzzySet_RightShoulder@@8			; FuzzySet_RightShoulder::`RTTI Base Class Array'
PUBLIC	??_R1A@?0A@EA@FuzzySet_RightShoulder@@8		; FuzzySet_RightShoulder::`RTTI Base Class Descriptor at (0,-1,0,64)'
PUBLIC	??_R4FuzzySet_Singleton@@6B@			; FuzzySet_Singleton::`RTTI Complete Object Locator'
PUBLIC	??_R0?AVFuzzySet_Singleton@@@8			; FuzzySet_Singleton `RTTI Type Descriptor'
PUBLIC	??_R3FuzzySet_Singleton@@8			; FuzzySet_Singleton::`RTTI Class Hierarchy Descriptor'
PUBLIC	??_R2FuzzySet_Singleton@@8			; FuzzySet_Singleton::`RTTI Base Class Array'
PUBLIC	??_R1A@?0A@EA@FuzzySet_Singleton@@8		; FuzzySet_Singleton::`RTTI Base Class Descriptor at (0,-1,0,64)'
PUBLIC	??_R4?$num_put@DV?$ostreambuf_iterator@DU?$char_traits@D@std@@@std@@@std@@6B@ ; std::num_put<char,std::ostreambuf_iterator<char,std::char_traits<char> > >::`RTTI Complete Object Locator'
PUBLIC	??_R0?AV?$num_put@DV?$ostreambuf_iterator@DU?$char_traits@D@std@@@std@@@std@@@8 ; std::num_put<char,std::ostreambuf_iterator<char,std::char_traits<char> > > `RTTI Type Descriptor'
PUBLIC	??_R3?$num_put@DV?$ostreambuf_iterator@DU?$char_traits@D@std@@@std@@@std@@8 ; std::num_put<char,std::ostreambuf_iterator<char,std::char_traits<char> > >::`RTTI Class Hierarchy Descriptor'
PUBLIC	??_R2?$num_put@DV?$ostreambuf_iterator@DU?$char_traits@D@std@@@std@@@std@@8 ; std::num_put<char,std::ostreambuf_iterator<char,std::char_traits<char> > >::`RTTI Base Class Array'
PUBLIC	??_R1A@?0A@EA@?$num_put@DV?$ostreambuf_iterator@DU?$char_traits@D@std@@@std@@@std@@8 ; std::num_put<char,std::ostreambuf_iterator<char,std::char_traits<char> > >::`RTTI Base Class Descriptor at (0,-1,0,64)'
PUBLIC	??_R4?$numpunct@D@std@@6B@			; std::numpunct<char>::`RTTI Complete Object Locator'
PUBLIC	??_R0?AV?$numpunct@D@std@@@8			; std::numpunct<char> `RTTI Type Descriptor'
PUBLIC	??_R3?$numpunct@D@std@@8			; std::numpunct<char>::`RTTI Class Hierarchy Descriptor'
PUBLIC	??_R2?$numpunct@D@std@@8			; std::numpunct<char>::`RTTI Base Class Array'
PUBLIC	??_R1A@?0A@EA@?$numpunct@D@std@@8		; std::numpunct<char>::`RTTI Base Class Descriptor at (0,-1,0,64)'
PUBLIC	__real@0000000000000000
PUBLIC	__real@0010000000000000
PUBLIC	__real@00800000
PUBLIC	__real@3d719799812dea11
PUBLIC	__real@3ff0000000000000
PUBLIC	__real@4000000000000000
PUBLIC	__real@4202a05f20000000
PUBLIC	__real@7f7fffff
PUBLIC	__real@7fefffffffffffff
EXTRN	__purecall:PROC
EXTRN	??2@YAPAXI@Z:PROC				; operator new
EXTRN	??3@YAXPAXI@Z:PROC				; operator delete
EXTRN	?__global_delete@@YAXPAXI@Z:PROC		; __global_delete
EXTRN	??_V@YAXPAX@Z:PROC				; operator delete[]
EXTRN	__invalid_parameter:PROC
EXTRN	??0_Lockit@std@@QAE@H@Z:PROC			; std::_Lockit::_Lockit
EXTRN	??1_Lockit@std@@QAE@XZ:PROC			; std::_Lockit::~_Lockit
EXTRN	_free:PROC
EXTRN	_abs:PROC
EXTRN	_fabs:PROC
EXTRN	_frexp:PROC
EXTRN	?uncaught_exception@std@@YA_NXZ:PROC		; std::uncaught_exception
EXTRN	_terminate:PROC
EXTRN	___std_exception_copy:PROC
EXTRN	___std_exception_destroy:PROC
EXTRN	??_Eexception@std@@UAEPAXI@Z:PROC		; std::exception::`vector deleting destructor'
EXTRN	___stdio_common_vsprintf_s:PROC
EXTRN	_memcmp:PROC
EXTRN	_memcpy:PROC
EXTRN	_memmove:PROC
EXTRN	_memset:PROC
EXTRN	_strcspn:PROC
EXTRN	_strlen:PROC
EXTRN	__calloc_dbg:PROC
EXTRN	__free_dbg:PROC
EXTRN	__malloc_dbg:PROC
EXTRN	__CrtDbgReportW:PROC
EXTRN	?_Debug_message@std@@YAXPB_W0I@Z:PROC		; std::_Debug_message
EXTRN	?_Xbad_alloc@std@@YAXXZ:PROC			; std::_Xbad_alloc
EXTRN	?_Xlength_error@std@@YAXPBD@Z:PROC		; std::_Xlength_error
EXTRN	?_Xout_of_range@std@@YAXPBD@Z:PROC		; std::_Xout_of_range
EXTRN	??_Eruntime_error@std@@UAEPAXI@Z:PROC		; std::runtime_error::`vector deleting destructor'
EXTRN	??_Ebad_cast@std@@UAEPAXI@Z:PROC		; std::bad_cast::`vector deleting destructor'
EXTRN	_localeconv:PROC
EXTRN	__Getctype:PROC
EXTRN	__Getcvt:PROC
EXTRN	__Tolower:PROC
EXTRN	__Toupper:PROC
EXTRN	?_Locinfo_ctor@_Locinfo@std@@SAXPAV12@PBD@Z:PROC ; std::_Locinfo::_Locinfo_ctor
EXTRN	?_Locinfo_dtor@_Locinfo@std@@SAXPAV12@@Z:PROC	; std::_Locinfo::_Locinfo_dtor
EXTRN	??_E_Facet_base@std@@UAEPAXI@Z:PROC		; std::_Facet_base::`vector deleting destructor'
EXTRN	?_Facet_Register@std@@YAXPAV_Facet_base@1@@Z:PROC ; std::_Facet_Register
EXTRN	??_Efacet@locale@std@@MAEPAXI@Z:PROC		; std::locale::facet::`vector deleting destructor'
EXTRN	?_Getgloballocale@locale@std@@CAPAV_Locimp@12@XZ:PROC ; std::locale::_Getgloballocale
EXTRN	??_Ectype_base@std@@UAEPAXI@Z:PROC		; std::ctype_base::`vector deleting destructor'
EXTRN	??_E?$ctype@D@std@@MAEPAXI@Z:PROC		; std::ctype<char>::`vector deleting destructor'
EXTRN	?_Execute_once@std@@YAHAAUonce_flag@1@P6GHPAX1PAPAX@Z1@Z:PROC ; std::_Execute_once
EXTRN	??_E_System_error@std@@UAEPAXI@Z:PROC		; std::_System_error::`vector deleting destructor'
EXTRN	??_Esystem_error@std@@UAEPAXI@Z:PROC		; std::system_error::`vector deleting destructor'
EXTRN	?_Syserror_map@std@@YAPBDH@Z:PROC		; std::_Syserror_map
EXTRN	??_E_Generic_error_category@std@@UAEPAXI@Z:PROC	; std::_Generic_error_category::`vector deleting destructor'
EXTRN	??_E_Iostream_error_category@std@@UAEPAXI@Z:PROC ; std::_Iostream_error_category::`vector deleting destructor'
EXTRN	??_Efailure@ios_base@std@@UAEPAXI@Z:PROC	; std::ios_base::failure::`vector deleting destructor'
EXTRN	__wassert:PROC
EXTRN	??_EFuzzyTerm@@UAEPAXI@Z:PROC			; FuzzyTerm::`vector deleting destructor'
EXTRN	?CalculateDOM@FuzzySet_Triangle@@UBENN@Z:PROC	; FuzzySet_Triangle::CalculateDOM
EXTRN	?CalculateDOM@FuzzySet_LeftShoulder@@UBENN@Z:PROC ; FuzzySet_LeftShoulder::CalculateDOM
EXTRN	?CalculateDOM@FuzzySet_RightShoulder@@UBENN@Z:PROC ; FuzzySet_RightShoulder::CalculateDOM
EXTRN	?CalculateDOM@FuzzySet_Singleton@@UBENN@Z:PROC	; FuzzySet_Singleton::CalculateDOM
EXTRN	??_EFzSet@@UAEPAXI@Z:PROC			; FzSet::`vector deleting destructor'
EXTRN	??_E?$num_put@DV?$ostreambuf_iterator@DU?$char_traits@D@std@@@std@@@std@@MAEPAXI@Z:PROC ; std::num_put<char,std::ostreambuf_iterator<char,std::char_traits<char> > >::`vector deleting destructor'
EXTRN	??_E?$numpunct@D@std@@MAEPAXI@Z:PROC		; std::numpunct<char>::`vector deleting destructor'
EXTRN	@_RTC_CheckStackVars@8:PROC
EXTRN	@__security_check_cookie@4:PROC
EXTRN	__CxxThrowException@8:PROC
EXTRN	__RTC_CheckEsp:PROC
EXTRN	__RTC_InitBase:PROC
EXTRN	__RTC_Shutdown:PROC
EXTRN	___CxxFrameHandler3:PROC
EXTRN	?nothrow@std@@3Unothrow_t@1@B:BYTE		; std::nothrow
EXTRN	??_7type_info@@6B@:QWORD			; type_info::`vftable'
EXTRN	?_Id_cnt@id@locale@std@@0HA:DWORD		; std::locale::id::_Id_cnt
EXTRN	?id@?$ctype@D@std@@2V0locale@2@A:DWORD		; std::ctype<char>::id
EXTRN	___security_cookie:DWORD
EXTRN	__fltused:DWORD
;	COMDAT ?_OptionsStorage@?1??__local_stdio_printf_options@@9@4_KA
_BSS	SEGMENT
?_OptionsStorage@?1??__local_stdio_printf_options@@9@4_KA DQ 01H DUP (?) ; `__local_stdio_printf_options'::`2'::_OptionsStorage
_BSS	ENDS
_BSS	SEGMENT
?MaxInt@@3HB DD	01H DUP (?)				; MaxInt
	ALIGN	8

?MaxDouble@@3NB DQ 01H DUP (?)				; MaxDouble
?MinDouble@@3NB DQ 01H DUP (?)				; MinDouble
?MaxFloat@@3MB DD 01H DUP (?)				; MaxFloat
?MinFloat@@3MB DD 01H DUP (?)				; MinFloat
_BSS	ENDS
;	COMDAT ?id@?$num_put@DV?$ostreambuf_iterator@DU?$char_traits@D@std@@@std@@@std@@2V0locale@2@A
_BSS	SEGMENT
?id@?$num_put@DV?$ostreambuf_iterator@DU?$char_traits@D@std@@@std@@@std@@2V0locale@2@A DD 01H DUP (?) ; std::num_put<char,std::ostreambuf_iterator<char,std::char_traits<char> > >::id
_BSS	ENDS
;	COMDAT ?id@?$numpunct@D@std@@2V0locale@2@A
_BSS	SEGMENT
?id@?$numpunct@D@std@@2V0locale@2@A DD 01H DUP (?)	; std::numpunct<char>::id
_BSS	ENDS
;	COMDAT ?_Psave@?$_Facetptr@V?$ctype@D@std@@@std@@2PBVfacet@locale@2@B
_BSS	SEGMENT
?_Psave@?$_Facetptr@V?$ctype@D@std@@@std@@2PBVfacet@locale@2@B DD 01H DUP (?) ; std::_Facetptr<std::ctype<char> >::_Psave
_BSS	ENDS
;	COMDAT ?_Flag@?1???$_Immortalize@V_Iostream_error_category@std@@@std@@YAAAV_Iostream_error_category@1@XZ@4PAXA
_BSS	SEGMENT
?_Flag@?1???$_Immortalize@V_Iostream_error_category@std@@@std@@YAAAV_Iostream_error_category@1@XZ@4PAXA DD 01H DUP (?) ; `std::_Immortalize<std::_Iostream_error_category>'::`2'::_Flag
_BSS	ENDS
;	COMDAT ?_Storage@?1???$_Immortalize@V_Iostream_error_category@std@@@std@@YAAAV_Iostream_error_category@1@XZ@4T?$_Align_type@H$07@1@A
_BSS	SEGMENT
?_Storage@?1???$_Immortalize@V_Iostream_error_category@std@@@std@@YAAAV_Iostream_error_category@1@XZ@4T?$_Align_type@H$07@1@A DQ 01H DUP (?) ; `std::_Immortalize<std::_Iostream_error_category>'::`2'::_Storage
_BSS	ENDS
;	COMDAT ?_Psave@?$_Facetptr@V?$num_put@DV?$ostreambuf_iterator@DU?$char_traits@D@std@@@std@@@std@@@std@@2PBVfacet@locale@2@B
_BSS	SEGMENT
?_Psave@?$_Facetptr@V?$num_put@DV?$ostreambuf_iterator@DU?$char_traits@D@std@@@std@@@std@@@std@@2PBVfacet@locale@2@B DD 01H DUP (?) ; std::_Facetptr<std::num_put<char,std::ostreambuf_iterator<char,std::char_traits<char> > > >::_Psave
_BSS	ENDS
;	COMDAT ?_Psave@?$_Facetptr@V?$numpunct@D@std@@@std@@2PBVfacet@locale@2@B
_BSS	SEGMENT
?_Psave@?$_Facetptr@V?$numpunct@D@std@@@std@@2PBVfacet@locale@2@B DD 01H DUP (?) ; std::_Facetptr<std::numpunct<char> >::_Psave
_BSS	ENDS
CRT$XCU	SEGMENT
?MaxInt$initializer$@@3P6AXXZA DD FLAT:??__EMaxInt@@YAXXZ ; MaxInt$initializer$
CRT$XCU	ENDS
;	COMDAT __real@7fefffffffffffff
CONST	SEGMENT
__real@7fefffffffffffff DQ 07fefffffffffffffr	; 1.79769e+308
CONST	ENDS
;	COMDAT __real@7f7fffff
CONST	SEGMENT
__real@7f7fffff DD 07f7fffffr			; 3.40282e+38
CONST	ENDS
;	COMDAT __real@4202a05f20000000
CONST	SEGMENT
__real@4202a05f20000000 DQ 04202a05f20000000r	; 1e+10
CONST	ENDS
;	COMDAT __real@4000000000000000
CONST	SEGMENT
__real@4000000000000000 DQ 04000000000000000r	; 2
CONST	ENDS
;	COMDAT __real@3ff0000000000000
CONST	SEGMENT
__real@3ff0000000000000 DQ 03ff0000000000000r	; 1
CONST	ENDS
;	COMDAT __real@3d719799812dea11
CONST	SEGMENT
__real@3d719799812dea11 DQ 03d719799812dea11r	; 1e-12
CONST	ENDS
;	COMDAT __real@00800000
CONST	SEGMENT
__real@00800000 DD 000800000r			; 1.17549e-38
CONST	ENDS
;	COMDAT __real@0010000000000000
CONST	SEGMENT
__real@0010000000000000 DQ 00010000000000000r	; 2.22507e-308
CONST	ENDS
;	COMDAT __real@0000000000000000
CONST	SEGMENT
__real@0000000000000000 DQ 00000000000000000r	; 0
CONST	ENDS
;	COMDAT rtc$TMZ
rtc$TMZ	SEGMENT
__RTC_Shutdown.rtc$TMZ DD FLAT:__RTC_Shutdown
rtc$TMZ	ENDS
;	COMDAT rtc$IMZ
rtc$IMZ	SEGMENT
__RTC_InitBase.rtc$IMZ DD FLAT:__RTC_InitBase
rtc$IMZ	ENDS
;	COMDAT ??_R1A@?0A@EA@?$numpunct@D@std@@8
rdata$r	SEGMENT
??_R1A@?0A@EA@?$numpunct@D@std@@8 DD FLAT:??_R0?AV?$numpunct@D@std@@@8 ; std::numpunct<char>::`RTTI Base Class Descriptor at (0,-1,0,64)'
	DD	03H
	DD	00H
	DD	0ffffffffH
	DD	00H
	DD	040H
	DD	FLAT:??_R3?$numpunct@D@std@@8
rdata$r	ENDS
;	COMDAT ??_R2?$numpunct@D@std@@8
rdata$r	SEGMENT
??_R2?$numpunct@D@std@@8 DD FLAT:??_R1A@?0A@EA@?$numpunct@D@std@@8 ; std::numpunct<char>::`RTTI Base Class Array'
	DD	FLAT:??_R1A@?0A@EA@facet@locale@std@@8
	DD	FLAT:??_R1A@?0A@EA@_Facet_base@std@@8
	DD	FLAT:??_R13?0A@EA@_Crt_new_delete@std@@8
rdata$r	ENDS
;	COMDAT ??_R3?$numpunct@D@std@@8
rdata$r	SEGMENT
??_R3?$numpunct@D@std@@8 DD 00H				; std::numpunct<char>::`RTTI Class Hierarchy Descriptor'
	DD	01H
	DD	04H
	DD	FLAT:??_R2?$numpunct@D@std@@8
rdata$r	ENDS
;	COMDAT ??_R0?AV?$numpunct@D@std@@@8
data$r	SEGMENT
??_R0?AV?$numpunct@D@std@@@8 DD FLAT:??_7type_info@@6B@	; std::numpunct<char> `RTTI Type Descriptor'
	DD	00H
	DB	'.?AV?$numpunct@D@std@@', 00H
data$r	ENDS
;	COMDAT ??_R4?$numpunct@D@std@@6B@
rdata$r	SEGMENT
??_R4?$numpunct@D@std@@6B@ DD 00H			; std::numpunct<char>::`RTTI Complete Object Locator'
	DD	00H
	DD	00H
	DD	FLAT:??_R0?AV?$numpunct@D@std@@@8
	DD	FLAT:??_R3?$numpunct@D@std@@8
rdata$r	ENDS
;	COMDAT ??_R1A@?0A@EA@?$num_put@DV?$ostreambuf_iterator@DU?$char_traits@D@std@@@std@@@std@@8
rdata$r	SEGMENT
??_R1A@?0A@EA@?$num_put@DV?$ostreambuf_iterator@DU?$char_traits@D@std@@@std@@@std@@8 DD FLAT:??_R0?AV?$num_put@DV?$ostreambuf_iterator@DU?$char_traits@D@std@@@std@@@std@@@8 ; std::num_put<char,std::ostreambuf_iterator<char,std::char_traits<char> > >::`RTTI Base Class Descriptor at (0,-1,0,64)'
	DD	03H
	DD	00H
	DD	0ffffffffH
	DD	00H
	DD	040H
	DD	FLAT:??_R3?$num_put@DV?$ostreambuf_iterator@DU?$char_traits@D@std@@@std@@@std@@8
rdata$r	ENDS
;	COMDAT ??_R2?$num_put@DV?$ostreambuf_iterator@DU?$char_traits@D@std@@@std@@@std@@8
rdata$r	SEGMENT
??_R2?$num_put@DV?$ostreambuf_iterator@DU?$char_traits@D@std@@@std@@@std@@8 DD FLAT:??_R1A@?0A@EA@?$num_put@DV?$ostreambuf_iterator@DU?$char_traits@D@std@@@std@@@std@@8 ; std::num_put<char,std::ostreambuf_iterator<char,std::char_traits<char> > >::`RTTI Base Class Array'
	DD	FLAT:??_R1A@?0A@EA@facet@locale@std@@8
	DD	FLAT:??_R1A@?0A@EA@_Facet_base@std@@8
	DD	FLAT:??_R13?0A@EA@_Crt_new_delete@std@@8
rdata$r	ENDS
;	COMDAT ??_R3?$num_put@DV?$ostreambuf_iterator@DU?$char_traits@D@std@@@std@@@std@@8
rdata$r	SEGMENT
??_R3?$num_put@DV?$ostreambuf_iterator@DU?$char_traits@D@std@@@std@@@std@@8 DD 00H ; std::num_put<char,std::ostreambuf_iterator<char,std::char_traits<char> > >::`RTTI Class Hierarchy Descriptor'
	DD	01H
	DD	04H
	DD	FLAT:??_R2?$num_put@DV?$ostreambuf_iterator@DU?$char_traits@D@std@@@std@@@std@@8
rdata$r	ENDS
;	COMDAT ??_R0?AV?$num_put@DV?$ostreambuf_iterator@DU?$char_traits@D@std@@@std@@@std@@@8
data$r	SEGMENT
??_R0?AV?$num_put@DV?$ostreambuf_iterator@DU?$char_traits@D@std@@@std@@@std@@@8 DD FLAT:??_7type_info@@6B@ ; std::num_put<char,std::ostreambuf_iterator<char,std::char_traits<char> > > `RTTI Type Descriptor'
	DD	00H
	DB	'.?AV?$num_put@DV?$ostreambuf_iterator@DU?$char_traits@D@'
	DB	'std@@@std@@@std@@', 00H
data$r	ENDS
;	COMDAT ??_R4?$num_put@DV?$ostreambuf_iterator@DU?$char_traits@D@std@@@std@@@std@@6B@
rdata$r	SEGMENT
??_R4?$num_put@DV?$ostreambuf_iterator@DU?$char_traits@D@std@@@std@@@std@@6B@ DD 00H ; std::num_put<char,std::ostreambuf_iterator<char,std::char_traits<char> > >::`RTTI Complete Object Locator'
	DD	00H
	DD	00H
	DD	FLAT:??_R0?AV?$num_put@DV?$ostreambuf_iterator@DU?$char_traits@D@std@@@std@@@std@@@8
	DD	FLAT:??_R3?$num_put@DV?$ostreambuf_iterator@DU?$char_traits@D@std@@@std@@@std@@8
rdata$r	ENDS
;	COMDAT ??_R1A@?0A@EA@FuzzySet_Singleton@@8
rdata$r	SEGMENT
??_R1A@?0A@EA@FuzzySet_Singleton@@8 DD FLAT:??_R0?AVFuzzySet_Singleton@@@8 ; FuzzySet_Singleton::`RTTI Base Class Descriptor at (0,-1,0,64)'
	DD	01H
	DD	00H
	DD	0ffffffffH
	DD	00H
	DD	040H
	DD	FLAT:??_R3FuzzySet_Singleton@@8
rdata$r	ENDS
;	COMDAT ??_R2FuzzySet_Singleton@@8
rdata$r	SEGMENT
??_R2FuzzySet_Singleton@@8 DD FLAT:??_R1A@?0A@EA@FuzzySet_Singleton@@8 ; FuzzySet_Singleton::`RTTI Base Class Array'
	DD	FLAT:??_R1A@?0A@EA@FuzzySet@@8
rdata$r	ENDS
;	COMDAT ??_R3FuzzySet_Singleton@@8
rdata$r	SEGMENT
??_R3FuzzySet_Singleton@@8 DD 00H			; FuzzySet_Singleton::`RTTI Class Hierarchy Descriptor'
	DD	00H
	DD	02H
	DD	FLAT:??_R2FuzzySet_Singleton@@8
rdata$r	ENDS
;	COMDAT ??_R0?AVFuzzySet_Singleton@@@8
data$r	SEGMENT
??_R0?AVFuzzySet_Singleton@@@8 DD FLAT:??_7type_info@@6B@ ; FuzzySet_Singleton `RTTI Type Descriptor'
	DD	00H
	DB	'.?AVFuzzySet_Singleton@@', 00H
data$r	ENDS
;	COMDAT ??_R4FuzzySet_Singleton@@6B@
rdata$r	SEGMENT
??_R4FuzzySet_Singleton@@6B@ DD 00H			; FuzzySet_Singleton::`RTTI Complete Object Locator'
	DD	00H
	DD	00H
	DD	FLAT:??_R0?AVFuzzySet_Singleton@@@8
	DD	FLAT:??_R3FuzzySet_Singleton@@8
rdata$r	ENDS
;	COMDAT ??_R1A@?0A@EA@FuzzySet_RightShoulder@@8
rdata$r	SEGMENT
??_R1A@?0A@EA@FuzzySet_RightShoulder@@8 DD FLAT:??_R0?AVFuzzySet_RightShoulder@@@8 ; FuzzySet_RightShoulder::`RTTI Base Class Descriptor at (0,-1,0,64)'
	DD	01H
	DD	00H
	DD	0ffffffffH
	DD	00H
	DD	040H
	DD	FLAT:??_R3FuzzySet_RightShoulder@@8
rdata$r	ENDS
;	COMDAT ??_R2FuzzySet_RightShoulder@@8
rdata$r	SEGMENT
??_R2FuzzySet_RightShoulder@@8 DD FLAT:??_R1A@?0A@EA@FuzzySet_RightShoulder@@8 ; FuzzySet_RightShoulder::`RTTI Base Class Array'
	DD	FLAT:??_R1A@?0A@EA@FuzzySet@@8
rdata$r	ENDS
;	COMDAT ??_R3FuzzySet_RightShoulder@@8
rdata$r	SEGMENT
??_R3FuzzySet_RightShoulder@@8 DD 00H			; FuzzySet_RightShoulder::`RTTI Class Hierarchy Descriptor'
	DD	00H
	DD	02H
	DD	FLAT:??_R2FuzzySet_RightShoulder@@8
rdata$r	ENDS
;	COMDAT ??_R0?AVFuzzySet_RightShoulder@@@8
data$r	SEGMENT
??_R0?AVFuzzySet_RightShoulder@@@8 DD FLAT:??_7type_info@@6B@ ; FuzzySet_RightShoulder `RTTI Type Descriptor'
	DD	00H
	DB	'.?AVFuzzySet_RightShoulder@@', 00H
data$r	ENDS
;	COMDAT ??_R4FuzzySet_RightShoulder@@6B@
rdata$r	SEGMENT
??_R4FuzzySet_RightShoulder@@6B@ DD 00H			; FuzzySet_RightShoulder::`RTTI Complete Object Locator'
	DD	00H
	DD	00H
	DD	FLAT:??_R0?AVFuzzySet_RightShoulder@@@8
	DD	FLAT:??_R3FuzzySet_RightShoulder@@8
rdata$r	ENDS
;	COMDAT ??_R1A@?0A@EA@FuzzySet_LeftShoulder@@8
rdata$r	SEGMENT
??_R1A@?0A@EA@FuzzySet_LeftShoulder@@8 DD FLAT:??_R0?AVFuzzySet_LeftShoulder@@@8 ; FuzzySet_LeftShoulder::`RTTI Base Class Descriptor at (0,-1,0,64)'
	DD	01H
	DD	00H
	DD	0ffffffffH
	DD	00H
	DD	040H
	DD	FLAT:??_R3FuzzySet_LeftShoulder@@8
rdata$r	ENDS
;	COMDAT ??_R2FuzzySet_LeftShoulder@@8
rdata$r	SEGMENT
??_R2FuzzySet_LeftShoulder@@8 DD FLAT:??_R1A@?0A@EA@FuzzySet_LeftShoulder@@8 ; FuzzySet_LeftShoulder::`RTTI Base Class Array'
	DD	FLAT:??_R1A@?0A@EA@FuzzySet@@8
rdata$r	ENDS
;	COMDAT ??_R3FuzzySet_LeftShoulder@@8
rdata$r	SEGMENT
??_R3FuzzySet_LeftShoulder@@8 DD 00H			; FuzzySet_LeftShoulder::`RTTI Class Hierarchy Descriptor'
	DD	00H
	DD	02H
	DD	FLAT:??_R2FuzzySet_LeftShoulder@@8
rdata$r	ENDS
;	COMDAT ??_R0?AVFuzzySet_LeftShoulder@@@8
data$r	SEGMENT
??_R0?AVFuzzySet_LeftShoulder@@@8 DD FLAT:??_7type_info@@6B@ ; FuzzySet_LeftShoulder `RTTI Type Descriptor'
	DD	00H
	DB	'.?AVFuzzySet_LeftShoulder@@', 00H
data$r	ENDS
;	COMDAT ??_R4FuzzySet_LeftShoulder@@6B@
rdata$r	SEGMENT
??_R4FuzzySet_LeftShoulder@@6B@ DD 00H			; FuzzySet_LeftShoulder::`RTTI Complete Object Locator'
	DD	00H
	DD	00H
	DD	FLAT:??_R0?AVFuzzySet_LeftShoulder@@@8
	DD	FLAT:??_R3FuzzySet_LeftShoulder@@8
rdata$r	ENDS
;	COMDAT ??_R1A@?0A@EA@FuzzySet_Triangle@@8
rdata$r	SEGMENT
??_R1A@?0A@EA@FuzzySet_Triangle@@8 DD FLAT:??_R0?AVFuzzySet_Triangle@@@8 ; FuzzySet_Triangle::`RTTI Base Class Descriptor at (0,-1,0,64)'
	DD	01H
	DD	00H
	DD	0ffffffffH
	DD	00H
	DD	040H
	DD	FLAT:??_R3FuzzySet_Triangle@@8
rdata$r	ENDS
;	COMDAT ??_R2FuzzySet_Triangle@@8
rdata$r	SEGMENT
??_R2FuzzySet_Triangle@@8 DD FLAT:??_R1A@?0A@EA@FuzzySet_Triangle@@8 ; FuzzySet_Triangle::`RTTI Base Class Array'
	DD	FLAT:??_R1A@?0A@EA@FuzzySet@@8
rdata$r	ENDS
;	COMDAT ??_R3FuzzySet_Triangle@@8
rdata$r	SEGMENT
??_R3FuzzySet_Triangle@@8 DD 00H			; FuzzySet_Triangle::`RTTI Class Hierarchy Descriptor'
	DD	00H
	DD	02H
	DD	FLAT:??_R2FuzzySet_Triangle@@8
rdata$r	ENDS
;	COMDAT ??_R0?AVFuzzySet_Triangle@@@8
data$r	SEGMENT
??_R0?AVFuzzySet_Triangle@@@8 DD FLAT:??_7type_info@@6B@ ; FuzzySet_Triangle `RTTI Type Descriptor'
	DD	00H
	DB	'.?AVFuzzySet_Triangle@@', 00H
data$r	ENDS
;	COMDAT ??_R4FuzzySet_Triangle@@6B@
rdata$r	SEGMENT
??_R4FuzzySet_Triangle@@6B@ DD 00H			; FuzzySet_Triangle::`RTTI Complete Object Locator'
	DD	00H
	DD	00H
	DD	FLAT:??_R0?AVFuzzySet_Triangle@@@8
	DD	FLAT:??_R3FuzzySet_Triangle@@8
rdata$r	ENDS
;	COMDAT ??_R4FuzzyTerm@@6B@
rdata$r	SEGMENT
??_R4FuzzyTerm@@6B@ DD 00H				; FuzzyTerm::`RTTI Complete Object Locator'
	DD	00H
	DD	00H
	DD	FLAT:??_R0?AVFuzzyTerm@@@8
	DD	FLAT:??_R3FuzzyTerm@@8
rdata$r	ENDS
;	COMDAT ??_R2FuzzyTerm@@8
rdata$r	SEGMENT
??_R2FuzzyTerm@@8 DD FLAT:??_R1A@?0A@EA@FuzzyTerm@@8	; FuzzyTerm::`RTTI Base Class Array'
rdata$r	ENDS
;	COMDAT ??_R3FuzzyTerm@@8
rdata$r	SEGMENT
??_R3FuzzyTerm@@8 DD 00H				; FuzzyTerm::`RTTI Class Hierarchy Descriptor'
	DD	00H
	DD	01H
	DD	FLAT:??_R2FuzzyTerm@@8
rdata$r	ENDS
;	COMDAT ??_R0?AVFuzzyTerm@@@8
data$r	SEGMENT
??_R0?AVFuzzyTerm@@@8 DD FLAT:??_7type_info@@6B@	; FuzzyTerm `RTTI Type Descriptor'
	DD	00H
	DB	'.?AVFuzzyTerm@@', 00H
data$r	ENDS
;	COMDAT ??_R1A@?0A@EA@FuzzyTerm@@8
rdata$r	SEGMENT
??_R1A@?0A@EA@FuzzyTerm@@8 DD FLAT:??_R0?AVFuzzyTerm@@@8 ; FuzzyTerm::`RTTI Base Class Descriptor at (0,-1,0,64)'
	DD	00H
	DD	00H
	DD	0ffffffffH
	DD	00H
	DD	040H
	DD	FLAT:??_R3FuzzyTerm@@8
rdata$r	ENDS
;	COMDAT ??_R1A@?0A@EA@FzSet@@8
rdata$r	SEGMENT
??_R1A@?0A@EA@FzSet@@8 DD FLAT:??_R0?AVFzSet@@@8	; FzSet::`RTTI Base Class Descriptor at (0,-1,0,64)'
	DD	01H
	DD	00H
	DD	0ffffffffH
	DD	00H
	DD	040H
	DD	FLAT:??_R3FzSet@@8
rdata$r	ENDS
;	COMDAT ??_R2FzSet@@8
rdata$r	SEGMENT
??_R2FzSet@@8 DD FLAT:??_R1A@?0A@EA@FzSet@@8		; FzSet::`RTTI Base Class Array'
	DD	FLAT:??_R1A@?0A@EA@FuzzyTerm@@8
rdata$r	ENDS
;	COMDAT ??_R3FzSet@@8
rdata$r	SEGMENT
??_R3FzSet@@8 DD 00H					; FzSet::`RTTI Class Hierarchy Descriptor'
	DD	00H
	DD	02H
	DD	FLAT:??_R2FzSet@@8
rdata$r	ENDS
;	COMDAT ??_R0?AVFzSet@@@8
data$r	SEGMENT
??_R0?AVFzSet@@@8 DD FLAT:??_7type_info@@6B@		; FzSet `RTTI Type Descriptor'
	DD	00H
	DB	'.?AVFzSet@@', 00H
data$r	ENDS
;	COMDAT ??_R4FzSet@@6B@
rdata$r	SEGMENT
??_R4FzSet@@6B@ DD 00H					; FzSet::`RTTI Complete Object Locator'
	DD	00H
	DD	00H
	DD	FLAT:??_R0?AVFzSet@@@8
	DD	FLAT:??_R3FzSet@@8
rdata$r	ENDS
;	COMDAT ??_R1A@?0A@EA@FuzzySet@@8
rdata$r	SEGMENT
??_R1A@?0A@EA@FuzzySet@@8 DD FLAT:??_R0?AVFuzzySet@@@8	; FuzzySet::`RTTI Base Class Descriptor at (0,-1,0,64)'
	DD	00H
	DD	00H
	DD	0ffffffffH
	DD	00H
	DD	040H
	DD	FLAT:??_R3FuzzySet@@8
rdata$r	ENDS
;	COMDAT ??_R2FuzzySet@@8
rdata$r	SEGMENT
??_R2FuzzySet@@8 DD FLAT:??_R1A@?0A@EA@FuzzySet@@8	; FuzzySet::`RTTI Base Class Array'
rdata$r	ENDS
;	COMDAT ??_R3FuzzySet@@8
rdata$r	SEGMENT
??_R3FuzzySet@@8 DD 00H					; FuzzySet::`RTTI Class Hierarchy Descriptor'
	DD	00H
	DD	01H
	DD	FLAT:??_R2FuzzySet@@8
rdata$r	ENDS
;	COMDAT ??_R0?AVFuzzySet@@@8
data$r	SEGMENT
??_R0?AVFuzzySet@@@8 DD FLAT:??_7type_info@@6B@		; FuzzySet `RTTI Type Descriptor'
	DD	00H
	DB	'.?AVFuzzySet@@', 00H
data$r	ENDS
;	COMDAT ??_R4FuzzySet@@6B@
rdata$r	SEGMENT
??_R4FuzzySet@@6B@ DD 00H				; FuzzySet::`RTTI Complete Object Locator'
	DD	00H
	DD	00H
	DD	FLAT:??_R0?AVFuzzySet@@@8
	DD	FLAT:??_R3FuzzySet@@8
rdata$r	ENDS
;	COMDAT ??_R1A@?0A@EA@failure@ios_base@std@@8
rdata$r	SEGMENT
??_R1A@?0A@EA@failure@ios_base@std@@8 DD FLAT:??_R0?AVfailure@ios_base@std@@@8 ; std::ios_base::failure::`RTTI Base Class Descriptor at (0,-1,0,64)'
	DD	04H
	DD	00H
	DD	0ffffffffH
	DD	00H
	DD	040H
	DD	FLAT:??_R3failure@ios_base@std@@8
rdata$r	ENDS
;	COMDAT ??_R2failure@ios_base@std@@8
rdata$r	SEGMENT
??_R2failure@ios_base@std@@8 DD FLAT:??_R1A@?0A@EA@failure@ios_base@std@@8 ; std::ios_base::failure::`RTTI Base Class Array'
	DD	FLAT:??_R1A@?0A@EA@system_error@std@@8
	DD	FLAT:??_R1A@?0A@EA@_System_error@std@@8
	DD	FLAT:??_R1A@?0A@EA@runtime_error@std@@8
	DD	FLAT:??_R1A@?0A@EA@exception@std@@8
rdata$r	ENDS
;	COMDAT ??_R3failure@ios_base@std@@8
rdata$r	SEGMENT
??_R3failure@ios_base@std@@8 DD 00H			; std::ios_base::failure::`RTTI Class Hierarchy Descriptor'
	DD	00H
	DD	05H
	DD	FLAT:??_R2failure@ios_base@std@@8
rdata$r	ENDS
;	COMDAT ??_R4failure@ios_base@std@@6B@
rdata$r	SEGMENT
??_R4failure@ios_base@std@@6B@ DD 00H			; std::ios_base::failure::`RTTI Complete Object Locator'
	DD	00H
	DD	00H
	DD	FLAT:??_R0?AVfailure@ios_base@std@@@8
	DD	FLAT:??_R3failure@ios_base@std@@8
rdata$r	ENDS
;	COMDAT ??_R1A@?0A@EA@_Iostream_error_category@std@@8
rdata$r	SEGMENT
??_R1A@?0A@EA@_Iostream_error_category@std@@8 DD FLAT:??_R0?AV_Iostream_error_category@std@@@8 ; std::_Iostream_error_category::`RTTI Base Class Descriptor at (0,-1,0,64)'
	DD	02H
	DD	00H
	DD	0ffffffffH
	DD	00H
	DD	040H
	DD	FLAT:??_R3_Iostream_error_category@std@@8
rdata$r	ENDS
;	COMDAT ??_R2_Iostream_error_category@std@@8
rdata$r	SEGMENT
??_R2_Iostream_error_category@std@@8 DD FLAT:??_R1A@?0A@EA@_Iostream_error_category@std@@8 ; std::_Iostream_error_category::`RTTI Base Class Array'
	DD	FLAT:??_R1A@?0A@EA@_Generic_error_category@std@@8
	DD	FLAT:??_R1A@?0A@EA@error_category@std@@8
rdata$r	ENDS
;	COMDAT ??_R3_Iostream_error_category@std@@8
rdata$r	SEGMENT
??_R3_Iostream_error_category@std@@8 DD 00H		; std::_Iostream_error_category::`RTTI Class Hierarchy Descriptor'
	DD	00H
	DD	03H
	DD	FLAT:??_R2_Iostream_error_category@std@@8
rdata$r	ENDS
;	COMDAT ??_R0?AV_Iostream_error_category@std@@@8
data$r	SEGMENT
??_R0?AV_Iostream_error_category@std@@@8 DD FLAT:??_7type_info@@6B@ ; std::_Iostream_error_category `RTTI Type Descriptor'
	DD	00H
	DB	'.?AV_Iostream_error_category@std@@', 00H
data$r	ENDS
;	COMDAT ??_R4_Iostream_error_category@std@@6B@
rdata$r	SEGMENT
??_R4_Iostream_error_category@std@@6B@ DD 00H		; std::_Iostream_error_category::`RTTI Complete Object Locator'
	DD	00H
	DD	00H
	DD	FLAT:??_R0?AV_Iostream_error_category@std@@@8
	DD	FLAT:??_R3_Iostream_error_category@std@@8
rdata$r	ENDS
;	COMDAT ??_R1A@?0A@EA@_Generic_error_category@std@@8
rdata$r	SEGMENT
??_R1A@?0A@EA@_Generic_error_category@std@@8 DD FLAT:??_R0?AV_Generic_error_category@std@@@8 ; std::_Generic_error_category::`RTTI Base Class Descriptor at (0,-1,0,64)'
	DD	01H
	DD	00H
	DD	0ffffffffH
	DD	00H
	DD	040H
	DD	FLAT:??_R3_Generic_error_category@std@@8
rdata$r	ENDS
;	COMDAT ??_R2_Generic_error_category@std@@8
rdata$r	SEGMENT
??_R2_Generic_error_category@std@@8 DD FLAT:??_R1A@?0A@EA@_Generic_error_category@std@@8 ; std::_Generic_error_category::`RTTI Base Class Array'
	DD	FLAT:??_R1A@?0A@EA@error_category@std@@8
rdata$r	ENDS
;	COMDAT ??_R3_Generic_error_category@std@@8
rdata$r	SEGMENT
??_R3_Generic_error_category@std@@8 DD 00H		; std::_Generic_error_category::`RTTI Class Hierarchy Descriptor'
	DD	00H
	DD	02H
	DD	FLAT:??_R2_Generic_error_category@std@@8
rdata$r	ENDS
;	COMDAT ??_R0?AV_Generic_error_category@std@@@8
data$r	SEGMENT
??_R0?AV_Generic_error_category@std@@@8 DD FLAT:??_7type_info@@6B@ ; std::_Generic_error_category `RTTI Type Descriptor'
	DD	00H
	DB	'.?AV_Generic_error_category@std@@', 00H
data$r	ENDS
;	COMDAT ??_R4_Generic_error_category@std@@6B@
rdata$r	SEGMENT
??_R4_Generic_error_category@std@@6B@ DD 00H		; std::_Generic_error_category::`RTTI Complete Object Locator'
	DD	00H
	DD	00H
	DD	FLAT:??_R0?AV_Generic_error_category@std@@@8
	DD	FLAT:??_R3_Generic_error_category@std@@8
rdata$r	ENDS
;	COMDAT ??_R1A@?0A@EA@system_error@std@@8
rdata$r	SEGMENT
??_R1A@?0A@EA@system_error@std@@8 DD FLAT:??_R0?AVsystem_error@std@@@8 ; std::system_error::`RTTI Base Class Descriptor at (0,-1,0,64)'
	DD	03H
	DD	00H
	DD	0ffffffffH
	DD	00H
	DD	040H
	DD	FLAT:??_R3system_error@std@@8
rdata$r	ENDS
;	COMDAT ??_R2system_error@std@@8
rdata$r	SEGMENT
??_R2system_error@std@@8 DD FLAT:??_R1A@?0A@EA@system_error@std@@8 ; std::system_error::`RTTI Base Class Array'
	DD	FLAT:??_R1A@?0A@EA@_System_error@std@@8
	DD	FLAT:??_R1A@?0A@EA@runtime_error@std@@8
	DD	FLAT:??_R1A@?0A@EA@exception@std@@8
rdata$r	ENDS
;	COMDAT ??_R3system_error@std@@8
rdata$r	SEGMENT
??_R3system_error@std@@8 DD 00H				; std::system_error::`RTTI Class Hierarchy Descriptor'
	DD	00H
	DD	04H
	DD	FLAT:??_R2system_error@std@@8
rdata$r	ENDS
;	COMDAT ??_R4system_error@std@@6B@
rdata$r	SEGMENT
??_R4system_error@std@@6B@ DD 00H			; std::system_error::`RTTI Complete Object Locator'
	DD	00H
	DD	00H
	DD	FLAT:??_R0?AVsystem_error@std@@@8
	DD	FLAT:??_R3system_error@std@@8
rdata$r	ENDS
;	COMDAT ??_R1A@?0A@EA@_System_error@std@@8
rdata$r	SEGMENT
??_R1A@?0A@EA@_System_error@std@@8 DD FLAT:??_R0?AV_System_error@std@@@8 ; std::_System_error::`RTTI Base Class Descriptor at (0,-1,0,64)'
	DD	02H
	DD	00H
	DD	0ffffffffH
	DD	00H
	DD	040H
	DD	FLAT:??_R3_System_error@std@@8
rdata$r	ENDS
;	COMDAT ??_R2_System_error@std@@8
rdata$r	SEGMENT
??_R2_System_error@std@@8 DD FLAT:??_R1A@?0A@EA@_System_error@std@@8 ; std::_System_error::`RTTI Base Class Array'
	DD	FLAT:??_R1A@?0A@EA@runtime_error@std@@8
	DD	FLAT:??_R1A@?0A@EA@exception@std@@8
rdata$r	ENDS
;	COMDAT ??_R3_System_error@std@@8
rdata$r	SEGMENT
??_R3_System_error@std@@8 DD 00H			; std::_System_error::`RTTI Class Hierarchy Descriptor'
	DD	00H
	DD	03H
	DD	FLAT:??_R2_System_error@std@@8
rdata$r	ENDS
;	COMDAT ??_R4_System_error@std@@6B@
rdata$r	SEGMENT
??_R4_System_error@std@@6B@ DD 00H			; std::_System_error::`RTTI Complete Object Locator'
	DD	00H
	DD	00H
	DD	FLAT:??_R0?AV_System_error@std@@@8
	DD	FLAT:??_R3_System_error@std@@8
rdata$r	ENDS
;	COMDAT ??_R1A@?0A@EA@error_category@std@@8
rdata$r	SEGMENT
??_R1A@?0A@EA@error_category@std@@8 DD FLAT:??_R0?AVerror_category@std@@@8 ; std::error_category::`RTTI Base Class Descriptor at (0,-1,0,64)'
	DD	00H
	DD	00H
	DD	0ffffffffH
	DD	00H
	DD	040H
	DD	FLAT:??_R3error_category@std@@8
rdata$r	ENDS
;	COMDAT ??_R2error_category@std@@8
rdata$r	SEGMENT
??_R2error_category@std@@8 DD FLAT:??_R1A@?0A@EA@error_category@std@@8 ; std::error_category::`RTTI Base Class Array'
rdata$r	ENDS
;	COMDAT ??_R3error_category@std@@8
rdata$r	SEGMENT
??_R3error_category@std@@8 DD 00H			; std::error_category::`RTTI Class Hierarchy Descriptor'
	DD	00H
	DD	01H
	DD	FLAT:??_R2error_category@std@@8
rdata$r	ENDS
;	COMDAT ??_R0?AVerror_category@std@@@8
data$r	SEGMENT
??_R0?AVerror_category@std@@@8 DD FLAT:??_7type_info@@6B@ ; std::error_category `RTTI Type Descriptor'
	DD	00H
	DB	'.?AVerror_category@std@@', 00H
data$r	ENDS
;	COMDAT ??_R1A@?0A@EA@?$ctype@D@std@@8
rdata$r	SEGMENT
??_R1A@?0A@EA@?$ctype@D@std@@8 DD FLAT:??_R0?AV?$ctype@D@std@@@8 ; std::ctype<char>::`RTTI Base Class Descriptor at (0,-1,0,64)'
	DD	04H
	DD	00H
	DD	0ffffffffH
	DD	00H
	DD	040H
	DD	FLAT:??_R3?$ctype@D@std@@8
rdata$r	ENDS
;	COMDAT ??_R2?$ctype@D@std@@8
rdata$r	SEGMENT
??_R2?$ctype@D@std@@8 DD FLAT:??_R1A@?0A@EA@?$ctype@D@std@@8 ; std::ctype<char>::`RTTI Base Class Array'
	DD	FLAT:??_R1A@?0A@EA@ctype_base@std@@8
	DD	FLAT:??_R1A@?0A@EA@facet@locale@std@@8
	DD	FLAT:??_R1A@?0A@EA@_Facet_base@std@@8
	DD	FLAT:??_R13?0A@EA@_Crt_new_delete@std@@8
rdata$r	ENDS
;	COMDAT ??_R3?$ctype@D@std@@8
rdata$r	SEGMENT
??_R3?$ctype@D@std@@8 DD 00H				; std::ctype<char>::`RTTI Class Hierarchy Descriptor'
	DD	01H
	DD	05H
	DD	FLAT:??_R2?$ctype@D@std@@8
rdata$r	ENDS
;	COMDAT ??_R0?AV?$ctype@D@std@@@8
data$r	SEGMENT
??_R0?AV?$ctype@D@std@@@8 DD FLAT:??_7type_info@@6B@	; std::ctype<char> `RTTI Type Descriptor'
	DD	00H
	DB	'.?AV?$ctype@D@std@@', 00H
data$r	ENDS
;	COMDAT ??_R4?$ctype@D@std@@6B@
rdata$r	SEGMENT
??_R4?$ctype@D@std@@6B@ DD 00H				; std::ctype<char>::`RTTI Complete Object Locator'
	DD	00H
	DD	00H
	DD	FLAT:??_R0?AV?$ctype@D@std@@@8
	DD	FLAT:??_R3?$ctype@D@std@@8
rdata$r	ENDS
;	COMDAT ??_R1A@?0A@EA@ctype_base@std@@8
rdata$r	SEGMENT
??_R1A@?0A@EA@ctype_base@std@@8 DD FLAT:??_R0?AUctype_base@std@@@8 ; std::ctype_base::`RTTI Base Class Descriptor at (0,-1,0,64)'
	DD	03H
	DD	00H
	DD	0ffffffffH
	DD	00H
	DD	040H
	DD	FLAT:??_R3ctype_base@std@@8
rdata$r	ENDS
;	COMDAT ??_R2ctype_base@std@@8
rdata$r	SEGMENT
??_R2ctype_base@std@@8 DD FLAT:??_R1A@?0A@EA@ctype_base@std@@8 ; std::ctype_base::`RTTI Base Class Array'
	DD	FLAT:??_R1A@?0A@EA@facet@locale@std@@8
	DD	FLAT:??_R1A@?0A@EA@_Facet_base@std@@8
	DD	FLAT:??_R13?0A@EA@_Crt_new_delete@std@@8
rdata$r	ENDS
;	COMDAT ??_R3ctype_base@std@@8
rdata$r	SEGMENT
??_R3ctype_base@std@@8 DD 00H				; std::ctype_base::`RTTI Class Hierarchy Descriptor'
	DD	01H
	DD	04H
	DD	FLAT:??_R2ctype_base@std@@8
rdata$r	ENDS
;	COMDAT ??_R0?AUctype_base@std@@@8
data$r	SEGMENT
??_R0?AUctype_base@std@@@8 DD FLAT:??_7type_info@@6B@	; std::ctype_base `RTTI Type Descriptor'
	DD	00H
	DB	'.?AUctype_base@std@@', 00H
data$r	ENDS
;	COMDAT ??_R4ctype_base@std@@6B@
rdata$r	SEGMENT
??_R4ctype_base@std@@6B@ DD 00H				; std::ctype_base::`RTTI Complete Object Locator'
	DD	00H
	DD	00H
	DD	FLAT:??_R0?AUctype_base@std@@@8
	DD	FLAT:??_R3ctype_base@std@@8
rdata$r	ENDS
;	COMDAT ??_R4facet@locale@std@@6B@
rdata$r	SEGMENT
??_R4facet@locale@std@@6B@ DD 00H			; std::locale::facet::`RTTI Complete Object Locator'
	DD	00H
	DD	00H
	DD	FLAT:??_R0?AVfacet@locale@std@@@8
	DD	FLAT:??_R3facet@locale@std@@8
rdata$r	ENDS
;	COMDAT ??_R1A@?0A@EA@_Crt_new_delete@std@@8
rdata$r	SEGMENT
??_R1A@?0A@EA@_Crt_new_delete@std@@8 DD FLAT:??_R0?AU_Crt_new_delete@std@@@8 ; std::_Crt_new_delete::`RTTI Base Class Descriptor at (0,-1,0,64)'
	DD	00H
	DD	00H
	DD	0ffffffffH
	DD	00H
	DD	040H
	DD	FLAT:??_R3_Crt_new_delete@std@@8
rdata$r	ENDS
;	COMDAT ??_R2_Crt_new_delete@std@@8
rdata$r	SEGMENT
??_R2_Crt_new_delete@std@@8 DD FLAT:??_R1A@?0A@EA@_Crt_new_delete@std@@8 ; std::_Crt_new_delete::`RTTI Base Class Array'
rdata$r	ENDS
;	COMDAT ??_R3_Crt_new_delete@std@@8
rdata$r	SEGMENT
??_R3_Crt_new_delete@std@@8 DD 00H			; std::_Crt_new_delete::`RTTI Class Hierarchy Descriptor'
	DD	00H
	DD	01H
	DD	FLAT:??_R2_Crt_new_delete@std@@8
rdata$r	ENDS
;	COMDAT ??_R0?AU_Crt_new_delete@std@@@8
data$r	SEGMENT
??_R0?AU_Crt_new_delete@std@@@8 DD FLAT:??_7type_info@@6B@ ; std::_Crt_new_delete `RTTI Type Descriptor'
	DD	00H
	DB	'.?AU_Crt_new_delete@std@@', 00H
data$r	ENDS
;	COMDAT ??_R13?0A@EA@_Crt_new_delete@std@@8
rdata$r	SEGMENT
??_R13?0A@EA@_Crt_new_delete@std@@8 DD FLAT:??_R0?AU_Crt_new_delete@std@@@8 ; std::_Crt_new_delete::`RTTI Base Class Descriptor at (4,-1,0,64)'
	DD	00H
	DD	04H
	DD	0ffffffffH
	DD	00H
	DD	040H
	DD	FLAT:??_R3_Crt_new_delete@std@@8
rdata$r	ENDS
;	COMDAT ??_R2facet@locale@std@@8
rdata$r	SEGMENT
??_R2facet@locale@std@@8 DD FLAT:??_R1A@?0A@EA@facet@locale@std@@8 ; std::locale::facet::`RTTI Base Class Array'
	DD	FLAT:??_R1A@?0A@EA@_Facet_base@std@@8
	DD	FLAT:??_R13?0A@EA@_Crt_new_delete@std@@8
rdata$r	ENDS
;	COMDAT ??_R3facet@locale@std@@8
rdata$r	SEGMENT
??_R3facet@locale@std@@8 DD 00H				; std::locale::facet::`RTTI Class Hierarchy Descriptor'
	DD	01H
	DD	03H
	DD	FLAT:??_R2facet@locale@std@@8
rdata$r	ENDS
;	COMDAT ??_R0?AVfacet@locale@std@@@8
data$r	SEGMENT
??_R0?AVfacet@locale@std@@@8 DD FLAT:??_7type_info@@6B@	; std::locale::facet `RTTI Type Descriptor'
	DD	00H
	DB	'.?AVfacet@locale@std@@', 00H
data$r	ENDS
;	COMDAT ??_R1A@?0A@EA@facet@locale@std@@8
rdata$r	SEGMENT
??_R1A@?0A@EA@facet@locale@std@@8 DD FLAT:??_R0?AVfacet@locale@std@@@8 ; std::locale::facet::`RTTI Base Class Descriptor at (0,-1,0,64)'
	DD	02H
	DD	00H
	DD	0ffffffffH
	DD	00H
	DD	040H
	DD	FLAT:??_R3facet@locale@std@@8
rdata$r	ENDS
;	COMDAT ??_R1A@?0A@EA@_Facet_base@std@@8
rdata$r	SEGMENT
??_R1A@?0A@EA@_Facet_base@std@@8 DD FLAT:??_R0?AV_Facet_base@std@@@8 ; std::_Facet_base::`RTTI Base Class Descriptor at (0,-1,0,64)'
	DD	00H
	DD	00H
	DD	0ffffffffH
	DD	00H
	DD	040H
	DD	FLAT:??_R3_Facet_base@std@@8
rdata$r	ENDS
;	COMDAT ??_R2_Facet_base@std@@8
rdata$r	SEGMENT
??_R2_Facet_base@std@@8 DD FLAT:??_R1A@?0A@EA@_Facet_base@std@@8 ; std::_Facet_base::`RTTI Base Class Array'
rdata$r	ENDS
;	COMDAT ??_R3_Facet_base@std@@8
rdata$r	SEGMENT
??_R3_Facet_base@std@@8 DD 00H				; std::_Facet_base::`RTTI Class Hierarchy Descriptor'
	DD	00H
	DD	01H
	DD	FLAT:??_R2_Facet_base@std@@8
rdata$r	ENDS
;	COMDAT ??_R0?AV_Facet_base@std@@@8
data$r	SEGMENT
??_R0?AV_Facet_base@std@@@8 DD FLAT:??_7type_info@@6B@	; std::_Facet_base `RTTI Type Descriptor'
	DD	00H
	DB	'.?AV_Facet_base@std@@', 00H
data$r	ENDS
;	COMDAT ??_R4_Facet_base@std@@6B@
rdata$r	SEGMENT
??_R4_Facet_base@std@@6B@ DD 00H			; std::_Facet_base::`RTTI Complete Object Locator'
	DD	00H
	DD	00H
	DD	FLAT:??_R0?AV_Facet_base@std@@@8
	DD	FLAT:??_R3_Facet_base@std@@8
rdata$r	ENDS
;	COMDAT ??_R1A@?0A@EA@bad_cast@std@@8
rdata$r	SEGMENT
??_R1A@?0A@EA@bad_cast@std@@8 DD FLAT:??_R0?AVbad_cast@std@@@8 ; std::bad_cast::`RTTI Base Class Descriptor at (0,-1,0,64)'
	DD	01H
	DD	00H
	DD	0ffffffffH
	DD	00H
	DD	040H
	DD	FLAT:??_R3bad_cast@std@@8
rdata$r	ENDS
;	COMDAT ??_R2bad_cast@std@@8
rdata$r	SEGMENT
??_R2bad_cast@std@@8 DD FLAT:??_R1A@?0A@EA@bad_cast@std@@8 ; std::bad_cast::`RTTI Base Class Array'
	DD	FLAT:??_R1A@?0A@EA@exception@std@@8
rdata$r	ENDS
;	COMDAT ??_R3bad_cast@std@@8
rdata$r	SEGMENT
??_R3bad_cast@std@@8 DD 00H				; std::bad_cast::`RTTI Class Hierarchy Descriptor'
	DD	00H
	DD	02H
	DD	FLAT:??_R2bad_cast@std@@8
rdata$r	ENDS
;	COMDAT ??_R4bad_cast@std@@6B@
rdata$r	SEGMENT
??_R4bad_cast@std@@6B@ DD 00H				; std::bad_cast::`RTTI Complete Object Locator'
	DD	00H
	DD	00H
	DD	FLAT:??_R0?AVbad_cast@std@@@8
	DD	FLAT:??_R3bad_cast@std@@8
rdata$r	ENDS
;	COMDAT ??_R1A@?0A@EA@runtime_error@std@@8
rdata$r	SEGMENT
??_R1A@?0A@EA@runtime_error@std@@8 DD FLAT:??_R0?AVruntime_error@std@@@8 ; std::runtime_error::`RTTI Base Class Descriptor at (0,-1,0,64)'
	DD	01H
	DD	00H
	DD	0ffffffffH
	DD	00H
	DD	040H
	DD	FLAT:??_R3runtime_error@std@@8
rdata$r	ENDS
;	COMDAT ??_R2runtime_error@std@@8
rdata$r	SEGMENT
??_R2runtime_error@std@@8 DD FLAT:??_R1A@?0A@EA@runtime_error@std@@8 ; std::runtime_error::`RTTI Base Class Array'
	DD	FLAT:??_R1A@?0A@EA@exception@std@@8
rdata$r	ENDS
;	COMDAT ??_R3runtime_error@std@@8
rdata$r	SEGMENT
??_R3runtime_error@std@@8 DD 00H			; std::runtime_error::`RTTI Class Hierarchy Descriptor'
	DD	00H
	DD	02H
	DD	FLAT:??_R2runtime_error@std@@8
rdata$r	ENDS
;	COMDAT ??_R4runtime_error@std@@6B@
rdata$r	SEGMENT
??_R4runtime_error@std@@6B@ DD 00H			; std::runtime_error::`RTTI Complete Object Locator'
	DD	00H
	DD	00H
	DD	FLAT:??_R0?AVruntime_error@std@@@8
	DD	FLAT:??_R3runtime_error@std@@8
rdata$r	ENDS
;	COMDAT ??_R1A@?0A@EA@exception@std@@8
rdata$r	SEGMENT
??_R1A@?0A@EA@exception@std@@8 DD FLAT:??_R0?AVexception@std@@@8 ; std::exception::`RTTI Base Class Descriptor at (0,-1,0,64)'
	DD	00H
	DD	00H
	DD	0ffffffffH
	DD	00H
	DD	040H
	DD	FLAT:??_R3exception@std@@8
rdata$r	ENDS
;	COMDAT ??_R2exception@std@@8
rdata$r	SEGMENT
??_R2exception@std@@8 DD FLAT:??_R1A@?0A@EA@exception@std@@8 ; std::exception::`RTTI Base Class Array'
rdata$r	ENDS
;	COMDAT ??_R3exception@std@@8
rdata$r	SEGMENT
??_R3exception@std@@8 DD 00H				; std::exception::`RTTI Class Hierarchy Descriptor'
	DD	00H
	DD	01H
	DD	FLAT:??_R2exception@std@@8
rdata$r	ENDS
;	COMDAT ??_R4exception@std@@6B@
rdata$r	SEGMENT
??_R4exception@std@@6B@ DD 00H				; std::exception::`RTTI Complete Object Locator'
	DD	00H
	DD	00H
	DD	FLAT:??_R0?AVexception@std@@@8
	DD	FLAT:??_R3exception@std@@8
rdata$r	ENDS
;	COMDAT ??_C@_0BE@JONHPENG@map?1set?$DMT?$DO?5too?5long?$AA@
CONST	SEGMENT
??_C@_0BE@JONHPENG@map?1set?$DMT?$DO?5too?5long?$AA@ DB 'map/set<T> too l'
	DB	'ong', 00H					; `string'
CONST	ENDS
;	COMDAT ??_C@_1EK@OIBHPACE@?$AA?$CC?$AAm?$AAa?$AAp?$AA?1?$AAs?$AAe?$AAt?$AA?5?$AAi?$AAt?$AAe?$AAr?$AAa?$AAt?$AAo?$AAr?$AA?5?$AAn?$AAo?$AAt?$AA?5?$AAd?$AAe?$AAc?$AAr?$AAe?$AAm?$AAe?$AAn?$AAt?$AAa@
CONST	SEGMENT
??_C@_1EK@OIBHPACE@?$AA?$CC?$AAm?$AAa?$AAp?$AA?1?$AAs?$AAe?$AAt?$AA?5?$AAi?$AAt?$AAe?$AAr?$AAa?$AAt?$AAo?$AAr?$AA?5?$AAn?$AAo?$AAt?$AA?5?$AAd?$AAe?$AAc?$AAr?$AAe?$AAm?$AAe?$AAn?$AAt?$AAa@ DB '"'
	DB	00H, 'm', 00H, 'a', 00H, 'p', 00H, '/', 00H, 's', 00H, 'e', 00H
	DB	't', 00H, ' ', 00H, 'i', 00H, 't', 00H, 'e', 00H, 'r', 00H, 'a'
	DB	00H, 't', 00H, 'o', 00H, 'r', 00H, ' ', 00H, 'n', 00H, 'o', 00H
	DB	't', 00H, ' ', 00H, 'd', 00H, 'e', 00H, 'c', 00H, 'r', 00H, 'e'
	DB	00H, 'm', 00H, 'e', 00H, 'n', 00H, 't', 00H, 'a', 00H, 'b', 00H
	DB	'l', 00H, 'e', 00H, '"', 00H, 00H, 00H	; `string'
CONST	ENDS
;	COMDAT ??_C@_1BMG@OLNDMIOO@?$AAs?$AAt?$AAd?$AA?3?$AA?3?$AA_?$AAT?$AAr?$AAe?$AAe?$AA_?$AAc?$AAo?$AAn?$AAs?$AAt?$AA_?$AAi?$AAt?$AAe?$AAr?$AAa?$AAt?$AAo?$AAr?$AA?$DM?$AAc?$AAl?$AAa?$AAs?$AAs?$AA?5@
CONST	SEGMENT
??_C@_1BMG@OLNDMIOO@?$AAs?$AAt?$AAd?$AA?3?$AA?3?$AA_?$AAT?$AAr?$AAe?$AAe?$AA_?$AAc?$AAo?$AAn?$AAs?$AAt?$AA_?$AAi?$AAt?$AAe?$AAr?$AAa?$AAt?$AAo?$AAr?$AA?$DM?$AAc?$AAl?$AAa?$AAs?$AAs?$AA?5@ DB 's'
	DB	00H, 't', 00H, 'd', 00H, ':', 00H, ':', 00H, '_', 00H, 'T', 00H
	DB	'r', 00H, 'e', 00H, 'e', 00H, '_', 00H, 'c', 00H, 'o', 00H, 'n'
	DB	00H, 's', 00H, 't', 00H, '_', 00H, 'i', 00H, 't', 00H, 'e', 00H
	DB	'r', 00H, 'a', 00H, 't', 00H, 'o', 00H, 'r', 00H, '<', 00H, 'c'
	DB	00H, 'l', 00H, 'a', 00H, 's', 00H, 's', 00H, ' ', 00H, 's', 00H
	DB	't', 00H, 'd', 00H, ':', 00H, ':', 00H, '_', 00H, 'T', 00H, 'r'
	DB	00H, 'e', 00H, 'e', 00H, '_', 00H, 'v', 00H, 'a', 00H, 'l', 00H
	DB	'<', 00H, 's', 00H, 't', 00H, 'r', 00H, 'u', 00H, 'c', 00H, 't'
	DB	00H, ' ', 00H, 's', 00H, 't', 00H, 'd', 00H, ':', 00H, ':', 00H
	DB	'_', 00H, 'T', 00H, 'r', 00H, 'e', 00H, 'e', 00H, '_', 00H, 's'
	DB	00H, 'i', 00H, 'm', 00H, 'p', 00H, 'l', 00H, 'e', 00H, '_', 00H
	DB	't', 00H, 'y', 00H, 'p', 00H, 'e', 00H, 's', 00H, '<', 00H, 's'
	DB	00H, 't', 00H, 'r', 00H, 'u', 00H, 'c', 00H, 't', 00H, ' ', 00H
	DB	's', 00H, 't', 00H, 'd', 00H, ':', 00H, ':', 00H, 'p', 00H, 'a'
	DB	00H, 'i', 00H, 'r', 00H, '<', 00H, 'c', 00H, 'l', 00H, 'a', 00H
	DB	's', 00H, 's', 00H, ' ', 00H, 's', 00H, 't', 00H, 'd', 00H, ':'
	DB	00H, ':', 00H, 'b', 00H, 'a', 00H, 's', 00H, 'i', 00H, 'c', 00H
	DB	'_', 00H, 's', 00H, 't', 00H, 'r', 00H, 'i', 00H, 'n', 00H, 'g'
	DB	00H, '<', 00H, 'c', 00H, 'h', 00H, 'a', 00H, 'r', 00H, ',', 00H
	DB	's', 00H, 't', 00H, 'r', 00H, 'u', 00H, 'c', 00H, 't', 00H, ' '
	DB	00H, 's', 00H, 't', 00H, 'd', 00H, ':', 00H, ':', 00H, 'c', 00H
	DB	'h', 00H, 'a', 00H, 'r', 00H, '_', 00H, 't', 00H, 'r', 00H, 'a'
	DB	00H, 'i', 00H, 't', 00H, 's', 00H, '<', 00H, 'c', 00H, 'h', 00H
	DB	'a', 00H, 'r', 00H, '>', 00H, ',', 00H, 'c', 00H, 'l', 00H, 'a'
	DB	00H, 's', 00H, 's', 00H, ' ', 00H, 's', 00H, 't', 00H, 'd', 00H
	DB	':', 00H, ':', 00H, 'a', 00H, 'l', 00H, 'l', 00H, 'o', 00H, 'c'
	DB	00H, 'a', 00H, 't', 00H, 'o', 00H, 'r', 00H, '<', 00H, 'c', 00H
	DB	'h', 00H, 'a', 00H, 'r', 00H, '>', 00H, ' ', 00H, '>', 00H, ' '
	DB	00H, 'c', 00H, 'o', 00H, 'n', 00H, 's', 00H, 't', 00H, ' ', 00H
	DB	',', 00H, 'c', 00H, 'l', 00H, 'a', 00H, 's', 00H, 's', 00H, ' '
	DB	00H, 'F', 00H, 'u', 00H, 'z', 00H, 'z', 00H, 'y', 00H, 'S', 00H
	DB	'e', 00H, 't', 00H, ' ', 00H, '*', 00H, '>', 00H, ' ', 00H, '>'
	DB	00H, ' ', 00H, '>', 00H, ' ', 00H, '>', 00H, ':', 00H, ':', 00H
	DB	'o', 00H, 'p', 00H, 'e', 00H, 'r', 00H, 'a', 00H, 't', 00H, 'o'
	DB	00H, 'r', 00H, ' ', 00H, '-', 00H, '-', 00H, 00H, 00H ; `string'
CONST	ENDS
;	COMDAT ??_C@_1EG@OKCGOALM@?$AAm?$AAa?$AAp?$AA?1?$AAs?$AAe?$AAt?$AA?5?$AAi?$AAt?$AAe?$AAr?$AAa?$AAt?$AAo?$AAr?$AA?5?$AAn?$AAo?$AAt?$AA?5?$AAd?$AAe?$AAc?$AAr?$AAe?$AAm?$AAe?$AAn?$AAt?$AAa?$AAb@
CONST	SEGMENT
??_C@_1EG@OKCGOALM@?$AAm?$AAa?$AAp?$AA?1?$AAs?$AAe?$AAt?$AA?5?$AAi?$AAt?$AAe?$AAr?$AAa?$AAt?$AAo?$AAr?$AA?5?$AAn?$AAo?$AAt?$AA?5?$AAd?$AAe?$AAc?$AAr?$AAe?$AAm?$AAe?$AAn?$AAt?$AAa?$AAb@ DB 'm'
	DB	00H, 'a', 00H, 'p', 00H, '/', 00H, 's', 00H, 'e', 00H, 't', 00H
	DB	' ', 00H, 'i', 00H, 't', 00H, 'e', 00H, 'r', 00H, 'a', 00H, 't'
	DB	00H, 'o', 00H, 'r', 00H, ' ', 00H, 'n', 00H, 'o', 00H, 't', 00H
	DB	' ', 00H, 'd', 00H, 'e', 00H, 'c', 00H, 'r', 00H, 'e', 00H, 'm'
	DB	00H, 'e', 00H, 'n', 00H, 't', 00H, 'a', 00H, 'b', 00H, 'l', 00H
	DB	'e', 00H, 00H, 00H				; `string'
CONST	ENDS
;	COMDAT ??_C@_1FA@HNFOKDLB@?$AA?$CC?$AAm?$AAa?$AAp?$AA?1?$AAs?$AAe?$AAt?$AA?5?$AAi?$AAn?$AAs?$AAe?$AAr?$AAt?$AA?5?$AAi?$AAt?$AAe?$AAr?$AAa?$AAt?$AAo?$AAr?$AA?5?$AAo?$AAu?$AAt?$AAs?$AAi?$AAd?$AAe@
CONST	SEGMENT
??_C@_1FA@HNFOKDLB@?$AA?$CC?$AAm?$AAa?$AAp?$AA?1?$AAs?$AAe?$AAt?$AA?5?$AAi?$AAn?$AAs?$AAe?$AAr?$AAt?$AA?5?$AAi?$AAt?$AAe?$AAr?$AAa?$AAt?$AAo?$AAr?$AA?5?$AAo?$AAu?$AAt?$AAs?$AAi?$AAd?$AAe@ DB '"'
	DB	00H, 'm', 00H, 'a', 00H, 'p', 00H, '/', 00H, 's', 00H, 'e', 00H
	DB	't', 00H, ' ', 00H, 'i', 00H, 'n', 00H, 's', 00H, 'e', 00H, 'r'
	DB	00H, 't', 00H, ' ', 00H, 'i', 00H, 't', 00H, 'e', 00H, 'r', 00H
	DB	'a', 00H, 't', 00H, 'o', 00H, 'r', 00H, ' ', 00H, 'o', 00H, 'u'
	DB	00H, 't', 00H, 's', 00H, 'i', 00H, 'd', 00H, 'e', 00H, ' ', 00H
	DB	'r', 00H, 'a', 00H, 'n', 00H, 'g', 00H, 'e', 00H, '"', 00H, 00H
	DB	00H						; `string'
CONST	ENDS
;	COMDAT ??_C@_1DEG@NIFFMAGA@?$AAs?$AAt?$AAd?$AA?3?$AA?3?$AA_?$AAT?$AAr?$AAe?$AAe?$AA?$DM?$AAc?$AAl?$AAa?$AAs?$AAs?$AA?5?$AAs?$AAt?$AAd?$AA?3?$AA?3?$AA_?$AAT?$AAm?$AAa?$AAp?$AA_?$AAt?$AAr?$AAa?$AAi@
CONST	SEGMENT
??_C@_1DEG@NIFFMAGA@?$AAs?$AAt?$AAd?$AA?3?$AA?3?$AA_?$AAT?$AAr?$AAe?$AAe?$AA?$DM?$AAc?$AAl?$AAa?$AAs?$AAs?$AA?5?$AAs?$AAt?$AAd?$AA?3?$AA?3?$AA_?$AAT?$AAm?$AAa?$AAp?$AA_?$AAt?$AAr?$AAa?$AAi@ DB 's'
	DB	00H, 't', 00H, 'd', 00H, ':', 00H, ':', 00H, '_', 00H, 'T', 00H
	DB	'r', 00H, 'e', 00H, 'e', 00H, '<', 00H, 'c', 00H, 'l', 00H, 'a'
	DB	00H, 's', 00H, 's', 00H, ' ', 00H, 's', 00H, 't', 00H, 'd', 00H
	DB	':', 00H, ':', 00H, '_', 00H, 'T', 00H, 'm', 00H, 'a', 00H, 'p'
	DB	00H, '_', 00H, 't', 00H, 'r', 00H, 'a', 00H, 'i', 00H, 't', 00H
	DB	's', 00H, '<', 00H, 'c', 00H, 'l', 00H, 'a', 00H, 's', 00H, 's'
	DB	00H, ' ', 00H, 's', 00H, 't', 00H, 'd', 00H, ':', 00H, ':', 00H
	DB	'b', 00H, 'a', 00H, 's', 00H, 'i', 00H, 'c', 00H, '_', 00H, 's'
	DB	00H, 't', 00H, 'r', 00H, 'i', 00H, 'n', 00H, 'g', 00H, '<', 00H
	DB	'c', 00H, 'h', 00H, 'a', 00H, 'r', 00H, ',', 00H, 's', 00H, 't'
	DB	00H, 'r', 00H, 'u', 00H, 'c', 00H, 't', 00H, ' ', 00H, 's', 00H
	DB	't', 00H, 'd', 00H, ':', 00H, ':', 00H, 'c', 00H, 'h', 00H, 'a'
	DB	00H, 'r', 00H, '_', 00H, 't', 00H, 'r', 00H, 'a', 00H, 'i', 00H
	DB	't', 00H, 's', 00H, '<', 00H, 'c', 00H, 'h', 00H, 'a', 00H, 'r'
	DB	00H, '>', 00H, ',', 00H, 'c', 00H, 'l', 00H, 'a', 00H, 's', 00H
	DB	's', 00H, ' ', 00H, 's', 00H, 't', 00H, 'd', 00H, ':', 00H, ':'
	DB	00H, 'a', 00H, 'l', 00H, 'l', 00H, 'o', 00H, 'c', 00H, 'a', 00H
	DB	't', 00H, 'o', 00H, 'r', 00H, '<', 00H, 'c', 00H, 'h', 00H, 'a'
	DB	00H, 'r', 00H, '>', 00H, ' ', 00H, '>', 00H, ',', 00H, 'c', 00H
	DB	'l', 00H, 'a', 00H, 's', 00H, 's', 00H, ' ', 00H, 'F', 00H, 'u'
	DB	00H, 'z', 00H, 'z', 00H, 'y', 00H, 'S', 00H, 'e', 00H, 't', 00H
	DB	' ', 00H, '*', 00H, ',', 00H, 's', 00H, 't', 00H, 'r', 00H, 'u'
	DB	00H, 'c', 00H, 't', 00H, ' ', 00H, 's', 00H, 't', 00H, 'd', 00H
	DB	':', 00H, ':', 00H, 'l', 00H, 'e', 00H, 's', 00H, 's', 00H, '<'
	DB	00H, 'c', 00H, 'l', 00H, 'a', 00H, 's', 00H, 's', 00H, ' ', 00H
	DB	's', 00H, 't', 00H, 'd', 00H, ':', 00H, ':', 00H, 'b', 00H, 'a'
	DB	00H, 's', 00H, 'i', 00H, 'c', 00H, '_', 00H, 's', 00H, 't', 00H
	DB	'r', 00H, 'i', 00H, 'n', 00H, 'g', 00H, '<', 00H, 'c', 00H, 'h'
	DB	00H, 'a', 00H, 'r', 00H, ',', 00H, 's', 00H, 't', 00H, 'r', 00H
	DB	'u', 00H, 'c', 00H, 't', 00H, ' ', 00H, 's', 00H, 't', 00H, 'd'
	DB	00H, ':', 00H, ':', 00H, 'c', 00H, 'h', 00H, 'a', 00H, 'r', 00H
	DB	'_', 00H, 't', 00H, 'r', 00H, 'a', 00H, 'i', 00H, 't', 00H, 's'
	DB	00H, '<', 00H, 'c', 00H, 'h', 00H, 'a', 00H, 'r', 00H, '>', 00H
	DB	',', 00H, 'c', 00H, 'l', 00H, 'a', 00H, 's', 00H, 's', 00H, ' '
	DB	00H, 's', 00H, 't', 00H, 'd', 00H, ':', 00H, ':', 00H, 'a', 00H
	DB	'l', 00H, 'l', 00H, 'o', 00H, 'c', 00H, 'a', 00H, 't', 00H, 'o'
	DB	00H, 'r', 00H, '<', 00H, 'c', 00H, 'h', 00H, 'a', 00H, 'r', 00H
	DB	'>', 00H, ' ', 00H, '>', 00H, ' ', 00H, '>', 00H, ',', 00H, 'c'
	DB	00H, 'l', 00H, 'a', 00H, 's', 00H, 's', 00H, ' ', 00H, 's', 00H
	DB	't', 00H, 'd', 00H, ':', 00H, ':', 00H, 'a', 00H, 'l', 00H, 'l'
	DB	00H, 'o', 00H, 'c', 00H, 'a', 00H, 't', 00H, 'o', 00H, 'r', 00H
	DB	'<', 00H, 's', 00H, 't', 00H, 'r', 00H, 'u', 00H, 'c', 00H, 't'
	DB	00H, ' ', 00H, 's', 00H, 't', 00H, 'd', 00H, ':', 00H, ':', 00H
	DB	'p', 00H, 'a', 00H, 'i', 00H, 'r', 00H, '<', 00H, 'c', 00H, 'l'
	DB	00H, 'a', 00H, 's', 00H, 's', 00H, ' ', 00H, 's', 00H, 't', 00H
	DB	'd', 00H, ':', 00H, ':', 00H, 'b', 00H, 'a', 00H, 's', 00H, 'i'
	DB	00H, 'c', 00H, '_', 00H, 's', 00H, 't', 00H, 'r', 00H, 'i', 00H
	DB	'n', 00H, 'g', 00H, '<', 00H, 'c', 00H, 'h', 00H, 'a', 00H, 'r'
	DB	00H, ',', 00H, 's', 00H, 't', 00H, 'r', 00H, 'u', 00H, 'c', 00H
	DB	't', 00H, ' ', 00H, 's', 00H, 't', 00H, 'd', 00H, ':', 00H, ':'
	DB	00H, 'c', 00H, 'h', 00H, 'a', 00H, 'r', 00H, '_', 00H, 't', 00H
	DB	'r', 00H, 'a', 00H, 'i', 00H, 't', 00H, 's', 00H, '<', 00H, 'c'
	DB	00H, 'h', 00H, 'a', 00H, 'r', 00H, '>', 00H, ',', 00H, 'c', 00H
	DB	'l', 00H, 'a', 00H, 's', 00H, 's', 00H, ' ', 00H, 's', 00H, 't'
	DB	00H, 'd', 00H, ':', 00H, ':', 00H, 'a', 00H, 'l', 00H, 'l', 00H
	DB	'o', 00H, 'c', 00H, 'a', 00H, 't', 00H, 'o', 00H, 'r', 00H, '<'
	DB	00H, 'c', 00H, 'h', 00H, 'a', 00H, 'r', 00H, '>', 00H, ' ', 00H
	DB	'>', 00H, ' ', 00H, 'c', 00H, 'o', 00H, 'n', 00H, 's', 00H, 't'
	DB	00H, ' ', 00H, ',', 00H, 'c', 00H, 'l', 00H, 'a', 00H, 's', 00H
	DB	's', 00H, ' ', 00H, 'F', 00H, 'u', 00H, 'z', 00H, 'z', 00H, 'y'
	DB	00H, 'S', 00H, 'e', 00H, 't', 00H, ' ', 00H, '*', 00H, '>', 00H
	DB	' ', 00H, '>', 00H, ',', 00H, '0', 00H, '>', 00H, ' ', 00H, '>'
	DB	00H, ':', 00H, ':', 00H, '_', 00H, 'I', 00H, 'n', 00H, 's', 00H
	DB	'e', 00H, 'r', 00H, 't', 00H, '_', 00H, 'h', 00H, 'i', 00H, 'n'
	DB	00H, 't', 00H, 00H, 00H			; `string'
CONST	ENDS
;	COMDAT ??_C@_1EM@MHOKKPFH@?$AAm?$AAa?$AAp?$AA?1?$AAs?$AAe?$AAt?$AA?5?$AAi?$AAn?$AAs?$AAe?$AAr?$AAt?$AA?5?$AAi?$AAt?$AAe?$AAr?$AAa?$AAt?$AAo?$AAr?$AA?5?$AAo?$AAu?$AAt?$AAs?$AAi?$AAd?$AAe?$AA?5@
CONST	SEGMENT
??_C@_1EM@MHOKKPFH@?$AAm?$AAa?$AAp?$AA?1?$AAs?$AAe?$AAt?$AA?5?$AAi?$AAn?$AAs?$AAe?$AAr?$AAt?$AA?5?$AAi?$AAt?$AAe?$AAr?$AAa?$AAt?$AAo?$AAr?$AA?5?$AAo?$AAu?$AAt?$AAs?$AAi?$AAd?$AAe?$AA?5@ DB 'm'
	DB	00H, 'a', 00H, 'p', 00H, '/', 00H, 's', 00H, 'e', 00H, 't', 00H
	DB	' ', 00H, 'i', 00H, 'n', 00H, 's', 00H, 'e', 00H, 'r', 00H, 't'
	DB	00H, ' ', 00H, 'i', 00H, 't', 00H, 'e', 00H, 'r', 00H, 'a', 00H
	DB	't', 00H, 'o', 00H, 'r', 00H, ' ', 00H, 'o', 00H, 'u', 00H, 't'
	DB	00H, 's', 00H, 'i', 00H, 'd', 00H, 'e', 00H, ' ', 00H, 'r', 00H
	DB	'a', 00H, 'n', 00H, 'g', 00H, 'e', 00H, 00H, 00H ; `string'
CONST	ENDS
;	COMDAT ??_C@_1CK@NDNHPKPI@?$AA?$CC?$AAi?$AAn?$AAv?$AAa?$AAl?$AAi?$AAd?$AA?5?$AAc?$AAo?$AAm?$AAp?$AAa?$AAr?$AAa?$AAt?$AAo?$AAr?$AA?$CC?$AA?$AA@
CONST	SEGMENT
??_C@_1CK@NDNHPKPI@?$AA?$CC?$AAi?$AAn?$AAv?$AAa?$AAl?$AAi?$AAd?$AA?5?$AAc?$AAo?$AAm?$AAp?$AAa?$AAr?$AAa?$AAt?$AAo?$AAr?$AA?$CC?$AA?$AA@ DB '"'
	DB	00H, 'i', 00H, 'n', 00H, 'v', 00H, 'a', 00H, 'l', 00H, 'i', 00H
	DB	'd', 00H, ' ', 00H, 'c', 00H, 'o', 00H, 'm', 00H, 'p', 00H, 'a'
	DB	00H, 'r', 00H, 'a', 00H, 't', 00H, 'o', 00H, 'r', 00H, '"', 00H
	DB	00H, 00H					; `string'
CONST	ENDS
;	COMDAT ??_C@_1CI@JONCLBEJ@?$AAs?$AAt?$AAd?$AA?3?$AA?3?$AA_?$AAD?$AAe?$AAb?$AAu?$AAg?$AA_?$AAl?$AAt?$AA_?$AAp?$AAr?$AAe?$AAd?$AA?$AA@
CONST	SEGMENT
??_C@_1CI@JONCLBEJ@?$AAs?$AAt?$AAd?$AA?3?$AA?3?$AA_?$AAD?$AAe?$AAb?$AAu?$AAg?$AA_?$AAl?$AAt?$AA_?$AAp?$AAr?$AAe?$AAd?$AA?$AA@ DB 's'
	DB	00H, 't', 00H, 'd', 00H, ':', 00H, ':', 00H, '_', 00H, 'D', 00H
	DB	'e', 00H, 'b', 00H, 'u', 00H, 'g', 00H, '_', 00H, 'l', 00H, 't'
	DB	00H, '_', 00H, 'p', 00H, 'r', 00H, 'e', 00H, 'd', 00H, 00H, 00H ; `string'
CONST	ENDS
;	COMDAT ??_C@_1CG@LEJCKCBB@?$AAi?$AAn?$AAv?$AAa?$AAl?$AAi?$AAd?$AA?5?$AAc?$AAo?$AAm?$AAp?$AAa?$AAr?$AAa?$AAt?$AAo?$AAr?$AA?$AA@
CONST	SEGMENT
??_C@_1CG@LEJCKCBB@?$AAi?$AAn?$AAv?$AAa?$AAl?$AAi?$AAd?$AA?5?$AAc?$AAo?$AAm?$AAp?$AAa?$AAr?$AAa?$AAt?$AAo?$AAr?$AA?$AA@ DB 'i'
	DB	00H, 'n', 00H, 'v', 00H, 'a', 00H, 'l', 00H, 'i', 00H, 'd', 00H
	DB	' ', 00H, 'c', 00H, 'o', 00H, 'm', 00H, 'p', 00H, 'a', 00H, 'r'
	DB	00H, 'a', 00H, 't', 00H, 'o', 00H, 'r', 00H, 00H, 00H ; `string'
CONST	ENDS
;	COMDAT ??_C@_1EO@GFNCMDLA@?$AAs?$AAt?$AAd?$AA?3?$AA?3?$AA_?$AAA?$AAl?$AAl?$AAo?$AAc?$AAa?$AAt?$AAe?$AA_?$AAm?$AAa?$AAn?$AAu?$AAa?$AAl?$AAl?$AAy?$AA_?$AAv?$AAe?$AAc?$AAt?$AAo?$AAr?$AA_?$AAa@
CONST	SEGMENT
??_C@_1EO@GFNCMDLA@?$AAs?$AAt?$AAd?$AA?3?$AA?3?$AA_?$AAA?$AAl?$AAl?$AAo?$AAc?$AAa?$AAt?$AAe?$AA_?$AAm?$AAa?$AAn?$AAu?$AAa?$AAl?$AAl?$AAy?$AA_?$AAv?$AAe?$AAc?$AAt?$AAo?$AAr?$AA_?$AAa@ DB 's'
	DB	00H, 't', 00H, 'd', 00H, ':', 00H, ':', 00H, '_', 00H, 'A', 00H
	DB	'l', 00H, 'l', 00H, 'o', 00H, 'c', 00H, 'a', 00H, 't', 00H, 'e'
	DB	00H, '_', 00H, 'm', 00H, 'a', 00H, 'n', 00H, 'u', 00H, 'a', 00H
	DB	'l', 00H, 'l', 00H, 'y', 00H, '_', 00H, 'v', 00H, 'e', 00H, 'c'
	DB	00H, 't', 00H, 'o', 00H, 'r', 00H, '_', 00H, 'a', 00H, 'l', 00H
	DB	'i', 00H, 'g', 00H, 'n', 00H, 'e', 00H, 'd', 00H, 00H, 00H ; `string'
CONST	ENDS
;	COMDAT ??_C@_17CNPHIMPH@?$AA?$CF?$AAl?$AAs?$AA?$AA@
CONST	SEGMENT
??_C@_17CNPHIMPH@?$AA?$CF?$AAl?$AAs?$AA?$AA@ DB '%', 00H, 'l', 00H, 's', 00H
	DB	00H, 00H					; `string'
CONST	ENDS
;	COMDAT ??_C@_1DG@HGDKEBPG@?$AA?$CC?$AA_?$AAP?$AAt?$AAr?$AA_?$AAc?$AAo?$AAn?$AAt?$AAa?$AAi?$AAn?$AAe?$AAr?$AA?5?$AA?$CB?$AA?$DN?$AA?5?$AA0?$AA?$CC?$AA?5?$AA?$CG?$AA?$CG?$AA?5?$AA0?$AA?$AA@
CONST	SEGMENT
??_C@_1DG@HGDKEBPG@?$AA?$CC?$AA_?$AAP?$AAt?$AAr?$AA_?$AAc?$AAo?$AAn?$AAt?$AAa?$AAi?$AAn?$AAe?$AAr?$AA?5?$AA?$CB?$AA?$DN?$AA?5?$AA0?$AA?$CC?$AA?5?$AA?$CG?$AA?$CG?$AA?5?$AA0?$AA?$AA@ DB '"'
	DB	00H, '_', 00H, 'P', 00H, 't', 00H, 'r', 00H, '_', 00H, 'c', 00H
	DB	'o', 00H, 'n', 00H, 't', 00H, 'a', 00H, 'i', 00H, 'n', 00H, 'e'
	DB	00H, 'r', 00H, ' ', 00H, '!', 00H, '=', 00H, ' ', 00H, '0', 00H
	DB	'"', 00H, ' ', 00H, '&', 00H, '&', 00H, ' ', 00H, '0', 00H, 00H
	DB	00H						; `string'
CONST	ENDS
;	COMDAT ??_C@_0BE@LMNLACIC@_Ptr_container?5?$CB?$DN?50?$AA@
CONST	SEGMENT
??_C@_0BE@LMNLACIC@_Ptr_container?5?$CB?$DN?50?$AA@ DB '_Ptr_container !='
	DB	' 0', 00H					; `string'
CONST	ENDS
;	COMDAT ??_C@_1MI@NCEPAGEA@?$AAd?$AA?3?$AA?2?$AAp?$AAr?$AAo?$AAg?$AAr?$AAa?$AAm?$AA?5?$AAf?$AAi?$AAl?$AAe?$AAs?$AA?5?$AA?$CI?$AAx?$AA8?$AA6?$AA?$CJ?$AA?2?$AAm?$AAi?$AAc?$AAr?$AAo?$AAs?$AAo?$AAf?$AAt@
CONST	SEGMENT
??_C@_1MI@NCEPAGEA@?$AAd?$AA?3?$AA?2?$AAp?$AAr?$AAo?$AAg?$AAr?$AAa?$AAm?$AA?5?$AAf?$AAi?$AAl?$AAe?$AAs?$AA?5?$AA?$CI?$AAx?$AA8?$AA6?$AA?$CJ?$AA?2?$AAm?$AAi?$AAc?$AAr?$AAo?$AAs?$AAo?$AAf?$AAt@ DB 'd'
	DB	00H, ':', 00H, '\', 00H, 'p', 00H, 'r', 00H, 'o', 00H, 'g', 00H
	DB	'r', 00H, 'a', 00H, 'm', 00H, ' ', 00H, 'f', 00H, 'i', 00H, 'l'
	DB	00H, 'e', 00H, 's', 00H, ' ', 00H, '(', 00H, 'x', 00H, '8', 00H
	DB	'6', 00H, ')', 00H, '\', 00H, 'm', 00H, 'i', 00H, 'c', 00H, 'r'
	DB	00H, 'o', 00H, 's', 00H, 'o', 00H, 'f', 00H, 't', 00H, ' ', 00H
	DB	'v', 00H, 'i', 00H, 's', 00H, 'u', 00H, 'a', 00H, 'l', 00H, ' '
	DB	00H, 's', 00H, 't', 00H, 'u', 00H, 'd', 00H, 'i', 00H, 'o', 00H
	DB	'\', 00H, '2', 00H, '0', 00H, '1', 00H, '7', 00H, '\', 00H, 'c'
	DB	00H, 'o', 00H, 'm', 00H, 'm', 00H, 'u', 00H, 'n', 00H, 'i', 00H
	DB	't', 00H, 'y', 00H, '\', 00H, 'v', 00H, 'c', 00H, '\', 00H, 't'
	DB	00H, 'o', 00H, 'o', 00H, 'l', 00H, 's', 00H, '\', 00H, 'm', 00H
	DB	's', 00H, 'v', 00H, 'c', 00H, '\', 00H, '1', 00H, '4', 00H, '.'
	DB	00H, '1', 00H, '4', 00H, '.', 00H, '2', 00H, '6', 00H, '4', 00H
	DB	'2', 00H, '8', 00H, '\', 00H, 'i', 00H, 'n', 00H, 'c', 00H, 'l'
	DB	00H, 'u', 00H, 'd', 00H, 'e', 00H, '\', 00H, 'm', 00H, 'a', 00H
	DB	'p', 00H, 00H, 00H				; `string'
CONST	ENDS
;	COMDAT ??_C@_1DC@CHPPODDE@?$AA?$CC?$AAi?$AAn?$AAv?$AAa?$AAl?$AAi?$AAd?$AA?5?$AAi?$AAt?$AAe?$AAr?$AAa?$AAt?$AAo?$AAr?$AA?5?$AAr?$AAa?$AAn?$AAg?$AAe?$AA?$CC?$AA?$AA@
CONST	SEGMENT
??_C@_1DC@CHPPODDE@?$AA?$CC?$AAi?$AAn?$AAv?$AAa?$AAl?$AAi?$AAd?$AA?5?$AAi?$AAt?$AAe?$AAr?$AAa?$AAt?$AAo?$AAr?$AA?5?$AAr?$AAa?$AAn?$AAg?$AAe?$AA?$CC?$AA?$AA@ DB '"'
	DB	00H, 'i', 00H, 'n', 00H, 'v', 00H, 'a', 00H, 'l', 00H, 'i', 00H
	DB	'd', 00H, ' ', 00H, 'i', 00H, 't', 00H, 'e', 00H, 'r', 00H, 'a'
	DB	00H, 't', 00H, 'o', 00H, 'r', 00H, ' ', 00H, 'r', 00H, 'a', 00H
	DB	'n', 00H, 'g', 00H, 'e', 00H, '"', 00H, 00H, 00H ; `string'
CONST	ENDS
;	COMDAT ??_C@_1CG@MDICLDJA@?$AAs?$AAt?$AAd?$AA?3?$AA?3?$AA_?$AAD?$AAe?$AAb?$AAu?$AAg?$AA_?$AAr?$AAa?$AAn?$AAg?$AAe?$AA2?$AA?$AA@
CONST	SEGMENT
??_C@_1CG@MDICLDJA@?$AAs?$AAt?$AAd?$AA?3?$AA?3?$AA_?$AAD?$AAe?$AAb?$AAu?$AAg?$AA_?$AAr?$AAa?$AAn?$AAg?$AAe?$AA2?$AA?$AA@ DB 's'
	DB	00H, 't', 00H, 'd', 00H, ':', 00H, ':', 00H, '_', 00H, 'D', 00H
	DB	'e', 00H, 'b', 00H, 'u', 00H, 'g', 00H, '_', 00H, 'r', 00H, 'a'
	DB	00H, 'n', 00H, 'g', 00H, 'e', 00H, '2', 00H, 00H, 00H ; `string'
CONST	ENDS
;	COMDAT ??_C@_1CO@DGLIKNHI@?$AAi?$AAn?$AAv?$AAa?$AAl?$AAi?$AAd?$AA?5?$AAi?$AAt?$AAe?$AAr?$AAa?$AAt?$AAo?$AAr?$AA?5?$AAr?$AAa?$AAn?$AAg?$AAe?$AA?$AA@
CONST	SEGMENT
??_C@_1CO@DGLIKNHI@?$AAi?$AAn?$AAv?$AAa?$AAl?$AAi?$AAd?$AA?5?$AAi?$AAt?$AAe?$AAr?$AAa?$AAt?$AAo?$AAr?$AA?5?$AAr?$AAa?$AAn?$AAg?$AAe?$AA?$AA@ DB 'i'
	DB	00H, 'n', 00H, 'v', 00H, 'a', 00H, 'l', 00H, 'i', 00H, 'd', 00H
	DB	' ', 00H, 'i', 00H, 't', 00H, 'e', 00H, 'r', 00H, 'a', 00H, 't'
	DB	00H, 'o', 00H, 'r', 00H, ' ', 00H, 'r', 00H, 'a', 00H, 'n', 00H
	DB	'g', 00H, 'e', 00H, 00H, 00H			; `string'
CONST	ENDS
;	COMDAT ??_C@_0BA@JFNIOLAK@string?5too?5long?$AA@
CONST	SEGMENT
??_C@_0BA@JFNIOLAK@string?5too?5long?$AA@ DB 'string too long', 00H ; `string'
CONST	ENDS
;	COMDAT __CT??_R0?AVbad_cast@std@@@8??0bad_cast@std@@QAE@ABV01@@Z12
xdata$x	SEGMENT
__CT??_R0?AVbad_cast@std@@@8??0bad_cast@std@@QAE@ABV01@@Z12 DD 00H
	DD	FLAT:??_R0?AVbad_cast@std@@@8
	DD	00H
	DD	0ffffffffH
	ORG $+4
	DD	0cH
	DD	FLAT:??0bad_cast@std@@QAE@ABV01@@Z
xdata$x	ENDS
;	COMDAT ??_R0?AVbad_cast@std@@@8
data$r	SEGMENT
??_R0?AVbad_cast@std@@@8 DD FLAT:??_7type_info@@6B@	; std::bad_cast `RTTI Type Descriptor'
	DD	00H
	DB	'.?AVbad_cast@std@@', 00H
data$r	ENDS
;	COMDAT __CTA2?AVbad_cast@std@@
xdata$x	SEGMENT
__CTA2?AVbad_cast@std@@ DD 02H
	DD	FLAT:__CT??_R0?AVbad_cast@std@@@8??0bad_cast@std@@QAE@ABV01@@Z12
	DD	FLAT:__CT??_R0?AVexception@std@@@8??0exception@std@@QAE@ABV01@@Z12
xdata$x	ENDS
;	COMDAT __TI2?AVbad_cast@std@@
xdata$x	SEGMENT
__TI2?AVbad_cast@std@@ DD 00H
	DD	FLAT:??1bad_cast@std@@UAE@XZ
	DD	00H
	DD	FLAT:__CTA2?AVbad_cast@std@@
xdata$x	ENDS
;	COMDAT ??_C@_0BI@CFPLBAOH@invalid?5string?5position?$AA@
CONST	SEGMENT
??_C@_0BI@CFPLBAOH@invalid?5string?5position?$AA@ DB 'invalid string posi'
	DB	'tion', 00H					; `string'
CONST	ENDS
;	COMDAT ??_C@_1BHM@JKBKHKPD@?$AAs?$AAt?$AAd?$AA?3?$AA?3?$AA_?$AAT?$AAr?$AAe?$AAe?$AA_?$AAv?$AAa?$AAl?$AA?$DM?$AAs?$AAt?$AAr?$AAu?$AAc?$AAt?$AA?5?$AAs?$AAt?$AAd?$AA?3?$AA?3?$AA_?$AAT?$AAr?$AAe?$AAe@
CONST	SEGMENT
??_C@_1BHM@JKBKHKPD@?$AAs?$AAt?$AAd?$AA?3?$AA?3?$AA_?$AAT?$AAr?$AAe?$AAe?$AA_?$AAv?$AAa?$AAl?$AA?$DM?$AAs?$AAt?$AAr?$AAu?$AAc?$AAt?$AA?5?$AAs?$AAt?$AAd?$AA?3?$AA?3?$AA_?$AAT?$AAr?$AAe?$AAe@ DB 's'
	DB	00H, 't', 00H, 'd', 00H, ':', 00H, ':', 00H, '_', 00H, 'T', 00H
	DB	'r', 00H, 'e', 00H, 'e', 00H, '_', 00H, 'v', 00H, 'a', 00H, 'l'
	DB	00H, '<', 00H, 's', 00H, 't', 00H, 'r', 00H, 'u', 00H, 'c', 00H
	DB	't', 00H, ' ', 00H, 's', 00H, 't', 00H, 'd', 00H, ':', 00H, ':'
	DB	00H, '_', 00H, 'T', 00H, 'r', 00H, 'e', 00H, 'e', 00H, '_', 00H
	DB	's', 00H, 'i', 00H, 'm', 00H, 'p', 00H, 'l', 00H, 'e', 00H, '_'
	DB	00H, 't', 00H, 'y', 00H, 'p', 00H, 'e', 00H, 's', 00H, '<', 00H
	DB	's', 00H, 't', 00H, 'r', 00H, 'u', 00H, 'c', 00H, 't', 00H, ' '
	DB	00H, 's', 00H, 't', 00H, 'd', 00H, ':', 00H, ':', 00H, 'p', 00H
	DB	'a', 00H, 'i', 00H, 'r', 00H, '<', 00H, 'c', 00H, 'l', 00H, 'a'
	DB	00H, 's', 00H, 's', 00H, ' ', 00H, 's', 00H, 't', 00H, 'd', 00H
	DB	':', 00H, ':', 00H, 'b', 00H, 'a', 00H, 's', 00H, 'i', 00H, 'c'
	DB	00H, '_', 00H, 's', 00H, 't', 00H, 'r', 00H, 'i', 00H, 'n', 00H
	DB	'g', 00H, '<', 00H, 'c', 00H, 'h', 00H, 'a', 00H, 'r', 00H, ','
	DB	00H, 's', 00H, 't', 00H, 'r', 00H, 'u', 00H, 'c', 00H, 't', 00H
	DB	' ', 00H, 's', 00H, 't', 00H, 'd', 00H, ':', 00H, ':', 00H, 'c'
	DB	00H, 'h', 00H, 'a', 00H, 'r', 00H, '_', 00H, 't', 00H, 'r', 00H
	DB	'a', 00H, 'i', 00H, 't', 00H, 's', 00H, '<', 00H, 'c', 00H, 'h'
	DB	00H, 'a', 00H, 'r', 00H, '>', 00H, ',', 00H, 'c', 00H, 'l', 00H
	DB	'a', 00H, 's', 00H, 's', 00H, ' ', 00H, 's', 00H, 't', 00H, 'd'
	DB	00H, ':', 00H, ':', 00H, 'a', 00H, 'l', 00H, 'l', 00H, 'o', 00H
	DB	'c', 00H, 'a', 00H, 't', 00H, 'o', 00H, 'r', 00H, '<', 00H, 'c'
	DB	00H, 'h', 00H, 'a', 00H, 'r', 00H, '>', 00H, ' ', 00H, '>', 00H
	DB	' ', 00H, 'c', 00H, 'o', 00H, 'n', 00H, 's', 00H, 't', 00H, ' '
	DB	00H, ',', 00H, 'c', 00H, 'l', 00H, 'a', 00H, 's', 00H, 's', 00H
	DB	' ', 00H, 'F', 00H, 'u', 00H, 'z', 00H, 'z', 00H, 'y', 00H, 'S'
	DB	00H, 'e', 00H, 't', 00H, ' ', 00H, '*', 00H, '>', 00H, ' ', 00H
	DB	'>', 00H, ' ', 00H, '>', 00H, ':', 00H, ':', 00H, '_', 00H, 'E'
	DB	00H, 'x', 00H, 't', 00H, 'r', 00H, 'a', 00H, 'c', 00H, 't', 00H
	DB	00H, 00H					; `string'
CONST	ENDS
;	COMDAT ??_C@_1EO@CEDAEPC@?$AA?$CC?$AAm?$AAa?$AAp?$AA?1?$AAs?$AAe?$AAt?$AA?5?$AAe?$AAr?$AAa?$AAs?$AAe?$AA?5?$AAi?$AAt?$AAe?$AAr?$AAa?$AAt?$AAo?$AAr?$AA?5?$AAo?$AAu?$AAt?$AAs?$AAi?$AAd?$AAe?$AA?5@
CONST	SEGMENT
??_C@_1EO@CEDAEPC@?$AA?$CC?$AAm?$AAa?$AAp?$AA?1?$AAs?$AAe?$AAt?$AA?5?$AAe?$AAr?$AAa?$AAs?$AAe?$AA?5?$AAi?$AAt?$AAe?$AAr?$AAa?$AAt?$AAo?$AAr?$AA?5?$AAo?$AAu?$AAt?$AAs?$AAi?$AAd?$AAe?$AA?5@ DB '"'
	DB	00H, 'm', 00H, 'a', 00H, 'p', 00H, '/', 00H, 's', 00H, 'e', 00H
	DB	't', 00H, ' ', 00H, 'e', 00H, 'r', 00H, 'a', 00H, 's', 00H, 'e'
	DB	00H, ' ', 00H, 'i', 00H, 't', 00H, 'e', 00H, 'r', 00H, 'a', 00H
	DB	't', 00H, 'o', 00H, 'r', 00H, ' ', 00H, 'o', 00H, 'u', 00H, 't'
	DB	00H, 's', 00H, 'i', 00H, 'd', 00H, 'e', 00H, ' ', 00H, 'r', 00H
	DB	'a', 00H, 'n', 00H, 'g', 00H, 'e', 00H, '"', 00H, 00H, 00H ; `string'
CONST	ENDS
;	COMDAT ??_C@_1DDI@BDFFOCMO@?$AAs?$AAt?$AAd?$AA?3?$AA?3?$AA_?$AAT?$AAr?$AAe?$AAe?$AA?$DM?$AAc?$AAl?$AAa?$AAs?$AAs?$AA?5?$AAs?$AAt?$AAd?$AA?3?$AA?3?$AA_?$AAT?$AAm?$AAa?$AAp?$AA_?$AAt?$AAr?$AAa?$AAi@
CONST	SEGMENT
??_C@_1DDI@BDFFOCMO@?$AAs?$AAt?$AAd?$AA?3?$AA?3?$AA_?$AAT?$AAr?$AAe?$AAe?$AA?$DM?$AAc?$AAl?$AAa?$AAs?$AAs?$AA?5?$AAs?$AAt?$AAd?$AA?3?$AA?3?$AA_?$AAT?$AAm?$AAa?$AAp?$AA_?$AAt?$AAr?$AAa?$AAi@ DB 's'
	DB	00H, 't', 00H, 'd', 00H, ':', 00H, ':', 00H, '_', 00H, 'T', 00H
	DB	'r', 00H, 'e', 00H, 'e', 00H, '<', 00H, 'c', 00H, 'l', 00H, 'a'
	DB	00H, 's', 00H, 's', 00H, ' ', 00H, 's', 00H, 't', 00H, 'd', 00H
	DB	':', 00H, ':', 00H, '_', 00H, 'T', 00H, 'm', 00H, 'a', 00H, 'p'
	DB	00H, '_', 00H, 't', 00H, 'r', 00H, 'a', 00H, 'i', 00H, 't', 00H
	DB	's', 00H, '<', 00H, 'c', 00H, 'l', 00H, 'a', 00H, 's', 00H, 's'
	DB	00H, ' ', 00H, 's', 00H, 't', 00H, 'd', 00H, ':', 00H, ':', 00H
	DB	'b', 00H, 'a', 00H, 's', 00H, 'i', 00H, 'c', 00H, '_', 00H, 's'
	DB	00H, 't', 00H, 'r', 00H, 'i', 00H, 'n', 00H, 'g', 00H, '<', 00H
	DB	'c', 00H, 'h', 00H, 'a', 00H, 'r', 00H, ',', 00H, 's', 00H, 't'
	DB	00H, 'r', 00H, 'u', 00H, 'c', 00H, 't', 00H, ' ', 00H, 's', 00H
	DB	't', 00H, 'd', 00H, ':', 00H, ':', 00H, 'c', 00H, 'h', 00H, 'a'
	DB	00H, 'r', 00H, '_', 00H, 't', 00H, 'r', 00H, 'a', 00H, 'i', 00H
	DB	't', 00H, 's', 00H, '<', 00H, 'c', 00H, 'h', 00H, 'a', 00H, 'r'
	DB	00H, '>', 00H, ',', 00H, 'c', 00H, 'l', 00H, 'a', 00H, 's', 00H
	DB	's', 00H, ' ', 00H, 's', 00H, 't', 00H, 'd', 00H, ':', 00H, ':'
	DB	00H, 'a', 00H, 'l', 00H, 'l', 00H, 'o', 00H, 'c', 00H, 'a', 00H
	DB	't', 00H, 'o', 00H, 'r', 00H, '<', 00H, 'c', 00H, 'h', 00H, 'a'
	DB	00H, 'r', 00H, '>', 00H, ' ', 00H, '>', 00H, ',', 00H, 'c', 00H
	DB	'l', 00H, 'a', 00H, 's', 00H, 's', 00H, ' ', 00H, 'F', 00H, 'u'
	DB	00H, 'z', 00H, 'z', 00H, 'y', 00H, 'S', 00H, 'e', 00H, 't', 00H
	DB	' ', 00H, '*', 00H, ',', 00H, 's', 00H, 't', 00H, 'r', 00H, 'u'
	DB	00H, 'c', 00H, 't', 00H, ' ', 00H, 's', 00H, 't', 00H, 'd', 00H
	DB	':', 00H, ':', 00H, 'l', 00H, 'e', 00H, 's', 00H, 's', 00H, '<'
	DB	00H, 'c', 00H, 'l', 00H, 'a', 00H, 's', 00H, 's', 00H, ' ', 00H
	DB	's', 00H, 't', 00H, 'd', 00H, ':', 00H, ':', 00H, 'b', 00H, 'a'
	DB	00H, 's', 00H, 'i', 00H, 'c', 00H, '_', 00H, 's', 00H, 't', 00H
	DB	'r', 00H, 'i', 00H, 'n', 00H, 'g', 00H, '<', 00H, 'c', 00H, 'h'
	DB	00H, 'a', 00H, 'r', 00H, ',', 00H, 's', 00H, 't', 00H, 'r', 00H
	DB	'u', 00H, 'c', 00H, 't', 00H, ' ', 00H, 's', 00H, 't', 00H, 'd'
	DB	00H, ':', 00H, ':', 00H, 'c', 00H, 'h', 00H, 'a', 00H, 'r', 00H
	DB	'_', 00H, 't', 00H, 'r', 00H, 'a', 00H, 'i', 00H, 't', 00H, 's'
	DB	00H, '<', 00H, 'c', 00H, 'h', 00H, 'a', 00H, 'r', 00H, '>', 00H
	DB	',', 00H, 'c', 00H, 'l', 00H, 'a', 00H, 's', 00H, 's', 00H, ' '
	DB	00H, 's', 00H, 't', 00H, 'd', 00H, ':', 00H, ':', 00H, 'a', 00H
	DB	'l', 00H, 'l', 00H, 'o', 00H, 'c', 00H, 'a', 00H, 't', 00H, 'o'
	DB	00H, 'r', 00H, '<', 00H, 'c', 00H, 'h', 00H, 'a', 00H, 'r', 00H
	DB	'>', 00H, ' ', 00H, '>', 00H, ' ', 00H, '>', 00H, ',', 00H, 'c'
	DB	00H, 'l', 00H, 'a', 00H, 's', 00H, 's', 00H, ' ', 00H, 's', 00H
	DB	't', 00H, 'd', 00H, ':', 00H, ':', 00H, 'a', 00H, 'l', 00H, 'l'
	DB	00H, 'o', 00H, 'c', 00H, 'a', 00H, 't', 00H, 'o', 00H, 'r', 00H
	DB	'<', 00H, 's', 00H, 't', 00H, 'r', 00H, 'u', 00H, 'c', 00H, 't'
	DB	00H, ' ', 00H, 's', 00H, 't', 00H, 'd', 00H, ':', 00H, ':', 00H
	DB	'p', 00H, 'a', 00H, 'i', 00H, 'r', 00H, '<', 00H, 'c', 00H, 'l'
	DB	00H, 'a', 00H, 's', 00H, 's', 00H, ' ', 00H, 's', 00H, 't', 00H
	DB	'd', 00H, ':', 00H, ':', 00H, 'b', 00H, 'a', 00H, 's', 00H, 'i'
	DB	00H, 'c', 00H, '_', 00H, 's', 00H, 't', 00H, 'r', 00H, 'i', 00H
	DB	'n', 00H, 'g', 00H, '<', 00H, 'c', 00H, 'h', 00H, 'a', 00H, 'r'
	DB	00H, ',', 00H, 's', 00H, 't', 00H, 'r', 00H, 'u', 00H, 'c', 00H
	DB	't', 00H, ' ', 00H, 's', 00H, 't', 00H, 'd', 00H, ':', 00H, ':'
	DB	00H, 'c', 00H, 'h', 00H, 'a', 00H, 'r', 00H, '_', 00H, 't', 00H
	DB	'r', 00H, 'a', 00H, 'i', 00H, 't', 00H, 's', 00H, '<', 00H, 'c'
	DB	00H, 'h', 00H, 'a', 00H, 'r', 00H, '>', 00H, ',', 00H, 'c', 00H
	DB	'l', 00H, 'a', 00H, 's', 00H, 's', 00H, ' ', 00H, 's', 00H, 't'
	DB	00H, 'd', 00H, ':', 00H, ':', 00H, 'a', 00H, 'l', 00H, 'l', 00H
	DB	'o', 00H, 'c', 00H, 'a', 00H, 't', 00H, 'o', 00H, 'r', 00H, '<'
	DB	00H, 'c', 00H, 'h', 00H, 'a', 00H, 'r', 00H, '>', 00H, ' ', 00H
	DB	'>', 00H, ' ', 00H, 'c', 00H, 'o', 00H, 'n', 00H, 's', 00H, 't'
	DB	00H, ' ', 00H, ',', 00H, 'c', 00H, 'l', 00H, 'a', 00H, 's', 00H
	DB	's', 00H, ' ', 00H, 'F', 00H, 'u', 00H, 'z', 00H, 'z', 00H, 'y'
	DB	00H, 'S', 00H, 'e', 00H, 't', 00H, ' ', 00H, '*', 00H, '>', 00H
	DB	' ', 00H, '>', 00H, ',', 00H, '0', 00H, '>', 00H, ' ', 00H, '>'
	DB	00H, ':', 00H, ':', 00H, 'e', 00H, 'r', 00H, 'a', 00H, 's', 00H
	DB	'e', 00H, 00H, 00H				; `string'
CONST	ENDS
;	COMDAT ??_C@_1EK@PPDBPCAN@?$AAm?$AAa?$AAp?$AA?1?$AAs?$AAe?$AAt?$AA?5?$AAe?$AAr?$AAa?$AAs?$AAe?$AA?5?$AAi?$AAt?$AAe?$AAr?$AAa?$AAt?$AAo?$AAr?$AA?5?$AAo?$AAu?$AAt?$AAs?$AAi?$AAd?$AAe?$AA?5?$AAr@
CONST	SEGMENT
??_C@_1EK@PPDBPCAN@?$AAm?$AAa?$AAp?$AA?1?$AAs?$AAe?$AAt?$AA?5?$AAe?$AAr?$AAa?$AAs?$AAe?$AA?5?$AAi?$AAt?$AAe?$AAr?$AAa?$AAt?$AAo?$AAr?$AA?5?$AAo?$AAu?$AAt?$AAs?$AAi?$AAd?$AAe?$AA?5?$AAr@ DB 'm'
	DB	00H, 'a', 00H, 'p', 00H, '/', 00H, 's', 00H, 'e', 00H, 't', 00H
	DB	' ', 00H, 'e', 00H, 'r', 00H, 'a', 00H, 's', 00H, 'e', 00H, ' '
	DB	00H, 'i', 00H, 't', 00H, 'e', 00H, 'r', 00H, 'a', 00H, 't', 00H
	DB	'o', 00H, 'r', 00H, ' ', 00H, 'o', 00H, 'u', 00H, 't', 00H, 's'
	DB	00H, 'i', 00H, 'd', 00H, 'e', 00H, ' ', 00H, 'r', 00H, 'a', 00H
	DB	'n', 00H, 'g', 00H, 'e', 00H, 00H, 00H	; `string'
CONST	ENDS
;	COMDAT ??_C@_01LFCBOECM@?4?$AA@
CONST	SEGMENT
??_C@_01LFCBOECM@?4?$AA@ DB '.', 00H			; `string'
CONST	ENDS
;	COMDAT ??_C@_02OOPEBDOJ@pP?$AA@
CONST	SEGMENT
??_C@_02OOPEBDOJ@pP?$AA@ DB 'pP', 00H			; `string'
CONST	ENDS
;	COMDAT ??_C@_02MDKMJEGG@eE?$AA@
CONST	SEGMENT
??_C@_02MDKMJEGG@eE?$AA@ DB 'eE', 00H			; `string'
CONST	ENDS
;	COMDAT ??_C@_1EM@KEKCOCNI@?$AA?$CC?$AAm?$AAa?$AAp?$AA?1?$AAs?$AAe?$AAt?$AA?5?$AAi?$AAt?$AAe?$AAr?$AAa?$AAt?$AAo?$AAr?$AA?5?$AAn?$AAo?$AAt?$AA?5?$AAd?$AAe?$AAr?$AAe?$AAf?$AAe?$AAr?$AAe?$AAn?$AAc@
CONST	SEGMENT
??_C@_1EM@KEKCOCNI@?$AA?$CC?$AAm?$AAa?$AAp?$AA?1?$AAs?$AAe?$AAt?$AA?5?$AAi?$AAt?$AAe?$AAr?$AAa?$AAt?$AAo?$AAr?$AA?5?$AAn?$AAo?$AAt?$AA?5?$AAd?$AAe?$AAr?$AAe?$AAf?$AAe?$AAr?$AAe?$AAn?$AAc@ DB '"'
	DB	00H, 'm', 00H, 'a', 00H, 'p', 00H, '/', 00H, 's', 00H, 'e', 00H
	DB	't', 00H, ' ', 00H, 'i', 00H, 't', 00H, 'e', 00H, 'r', 00H, 'a'
	DB	00H, 't', 00H, 'o', 00H, 'r', 00H, ' ', 00H, 'n', 00H, 'o', 00H
	DB	't', 00H, ' ', 00H, 'd', 00H, 'e', 00H, 'r', 00H, 'e', 00H, 'f'
	DB	00H, 'e', 00H, 'r', 00H, 'e', 00H, 'n', 00H, 'c', 00H, 'a', 00H
	DB	'b', 00H, 'l', 00H, 'e', 00H, '"', 00H, 00H, 00H ; `string'
CONST	ENDS
;	COMDAT ??_C@_1BME@EOFAGODJ@?$AAs?$AAt?$AAd?$AA?3?$AA?3?$AA_?$AAT?$AAr?$AAe?$AAe?$AA_?$AAc?$AAo?$AAn?$AAs?$AAt?$AA_?$AAi?$AAt?$AAe?$AAr?$AAa?$AAt?$AAo?$AAr?$AA?$DM?$AAc?$AAl?$AAa?$AAs?$AAs?$AA?5@
CONST	SEGMENT
??_C@_1BME@EOFAGODJ@?$AAs?$AAt?$AAd?$AA?3?$AA?3?$AA_?$AAT?$AAr?$AAe?$AAe?$AA_?$AAc?$AAo?$AAn?$AAs?$AAt?$AA_?$AAi?$AAt?$AAe?$AAr?$AAa?$AAt?$AAo?$AAr?$AA?$DM?$AAc?$AAl?$AAa?$AAs?$AAs?$AA?5@ DB 's'
	DB	00H, 't', 00H, 'd', 00H, ':', 00H, ':', 00H, '_', 00H, 'T', 00H
	DB	'r', 00H, 'e', 00H, 'e', 00H, '_', 00H, 'c', 00H, 'o', 00H, 'n'
	DB	00H, 's', 00H, 't', 00H, '_', 00H, 'i', 00H, 't', 00H, 'e', 00H
	DB	'r', 00H, 'a', 00H, 't', 00H, 'o', 00H, 'r', 00H, '<', 00H, 'c'
	DB	00H, 'l', 00H, 'a', 00H, 's', 00H, 's', 00H, ' ', 00H, 's', 00H
	DB	't', 00H, 'd', 00H, ':', 00H, ':', 00H, '_', 00H, 'T', 00H, 'r'
	DB	00H, 'e', 00H, 'e', 00H, '_', 00H, 'v', 00H, 'a', 00H, 'l', 00H
	DB	'<', 00H, 's', 00H, 't', 00H, 'r', 00H, 'u', 00H, 'c', 00H, 't'
	DB	00H, ' ', 00H, 's', 00H, 't', 00H, 'd', 00H, ':', 00H, ':', 00H
	DB	'_', 00H, 'T', 00H, 'r', 00H, 'e', 00H, 'e', 00H, '_', 00H, 's'
	DB	00H, 'i', 00H, 'm', 00H, 'p', 00H, 'l', 00H, 'e', 00H, '_', 00H
	DB	't', 00H, 'y', 00H, 'p', 00H, 'e', 00H, 's', 00H, '<', 00H, 's'
	DB	00H, 't', 00H, 'r', 00H, 'u', 00H, 'c', 00H, 't', 00H, ' ', 00H
	DB	's', 00H, 't', 00H, 'd', 00H, ':', 00H, ':', 00H, 'p', 00H, 'a'
	DB	00H, 'i', 00H, 'r', 00H, '<', 00H, 'c', 00H, 'l', 00H, 'a', 00H
	DB	's', 00H, 's', 00H, ' ', 00H, 's', 00H, 't', 00H, 'd', 00H, ':'
	DB	00H, ':', 00H, 'b', 00H, 'a', 00H, 's', 00H, 'i', 00H, 'c', 00H
	DB	'_', 00H, 's', 00H, 't', 00H, 'r', 00H, 'i', 00H, 'n', 00H, 'g'
	DB	00H, '<', 00H, 'c', 00H, 'h', 00H, 'a', 00H, 'r', 00H, ',', 00H
	DB	's', 00H, 't', 00H, 'r', 00H, 'u', 00H, 'c', 00H, 't', 00H, ' '
	DB	00H, 's', 00H, 't', 00H, 'd', 00H, ':', 00H, ':', 00H, 'c', 00H
	DB	'h', 00H, 'a', 00H, 'r', 00H, '_', 00H, 't', 00H, 'r', 00H, 'a'
	DB	00H, 'i', 00H, 't', 00H, 's', 00H, '<', 00H, 'c', 00H, 'h', 00H
	DB	'a', 00H, 'r', 00H, '>', 00H, ',', 00H, 'c', 00H, 'l', 00H, 'a'
	DB	00H, 's', 00H, 's', 00H, ' ', 00H, 's', 00H, 't', 00H, 'd', 00H
	DB	':', 00H, ':', 00H, 'a', 00H, 'l', 00H, 'l', 00H, 'o', 00H, 'c'
	DB	00H, 'a', 00H, 't', 00H, 'o', 00H, 'r', 00H, '<', 00H, 'c', 00H
	DB	'h', 00H, 'a', 00H, 'r', 00H, '>', 00H, ' ', 00H, '>', 00H, ' '
	DB	00H, 'c', 00H, 'o', 00H, 'n', 00H, 's', 00H, 't', 00H, ' ', 00H
	DB	',', 00H, 'c', 00H, 'l', 00H, 'a', 00H, 's', 00H, 's', 00H, ' '
	DB	00H, 'F', 00H, 'u', 00H, 'z', 00H, 'z', 00H, 'y', 00H, 'S', 00H
	DB	'e', 00H, 't', 00H, ' ', 00H, '*', 00H, '>', 00H, ' ', 00H, '>'
	DB	00H, ' ', 00H, '>', 00H, ' ', 00H, '>', 00H, ':', 00H, ':', 00H
	DB	'o', 00H, 'p', 00H, 'e', 00H, 'r', 00H, 'a', 00H, 't', 00H, 'o'
	DB	00H, 'r', 00H, ' ', 00H, '*', 00H, 00H, 00H	; `string'
CONST	ENDS
;	COMDAT ??_C@_1EI@FHEHNNNM@?$AAm?$AAa?$AAp?$AA?1?$AAs?$AAe?$AAt?$AA?5?$AAi?$AAt?$AAe?$AAr?$AAa?$AAt?$AAo?$AAr?$AA?5?$AAn?$AAo?$AAt?$AA?5?$AAd?$AAe?$AAr?$AAe?$AAf?$AAe?$AAr?$AAe?$AAn?$AAc?$AAa@
CONST	SEGMENT
??_C@_1EI@FHEHNNNM@?$AAm?$AAa?$AAp?$AA?1?$AAs?$AAe?$AAt?$AA?5?$AAi?$AAt?$AAe?$AAr?$AAa?$AAt?$AAo?$AAr?$AA?5?$AAn?$AAo?$AAt?$AA?5?$AAd?$AAe?$AAr?$AAe?$AAf?$AAe?$AAr?$AAe?$AAn?$AAc?$AAa@ DB 'm'
	DB	00H, 'a', 00H, 'p', 00H, '/', 00H, 's', 00H, 'e', 00H, 't', 00H
	DB	' ', 00H, 'i', 00H, 't', 00H, 'e', 00H, 'r', 00H, 'a', 00H, 't'
	DB	00H, 'o', 00H, 'r', 00H, ' ', 00H, 'n', 00H, 'o', 00H, 't', 00H
	DB	' ', 00H, 'd', 00H, 'e', 00H, 'r', 00H, 'e', 00H, 'f', 00H, 'e'
	DB	00H, 'r', 00H, 'e', 00H, 'n', 00H, 'c', 00H, 'a', 00H, 'b', 00H
	DB	'l', 00H, 'e', 00H, 00H, 00H			; `string'
CONST	ENDS
;	COMDAT ??_C@_1EC@JLIDLCDH@?$AA?$CC?$AAm?$AAa?$AAp?$AA?1?$AAs?$AAe?$AAt?$AA?5?$AAi?$AAt?$AAe?$AAr?$AAa?$AAt?$AAo?$AAr?$AAs?$AA?5?$AAi?$AAn?$AAc?$AAo?$AAm?$AAp?$AAa?$AAt?$AAi?$AAb?$AAl?$AAe?$AA?$CC@
CONST	SEGMENT
??_C@_1EC@JLIDLCDH@?$AA?$CC?$AAm?$AAa?$AAp?$AA?1?$AAs?$AAe?$AAt?$AA?5?$AAi?$AAt?$AAe?$AAr?$AAa?$AAt?$AAo?$AAr?$AAs?$AA?5?$AAi?$AAn?$AAc?$AAo?$AAm?$AAp?$AAa?$AAt?$AAi?$AAb?$AAl?$AAe?$AA?$CC@ DB '"'
	DB	00H, 'm', 00H, 'a', 00H, 'p', 00H, '/', 00H, 's', 00H, 'e', 00H
	DB	't', 00H, ' ', 00H, 'i', 00H, 't', 00H, 'e', 00H, 'r', 00H, 'a'
	DB	00H, 't', 00H, 'o', 00H, 'r', 00H, 's', 00H, ' ', 00H, 'i', 00H
	DB	'n', 00H, 'c', 00H, 'o', 00H, 'm', 00H, 'p', 00H, 'a', 00H, 't'
	DB	00H, 'i', 00H, 'b', 00H, 'l', 00H, 'e', 00H, '"', 00H, 00H, 00H ; `string'
CONST	ENDS
;	COMDAT ??_C@_1BMG@LIBMJNOK@?$AAs?$AAt?$AAd?$AA?3?$AA?3?$AA_?$AAT?$AAr?$AAe?$AAe?$AA_?$AAc?$AAo?$AAn?$AAs?$AAt?$AA_?$AAi?$AAt?$AAe?$AAr?$AAa?$AAt?$AAo?$AAr?$AA?$DM?$AAc?$AAl?$AAa?$AAs?$AAs?$AA?5@
CONST	SEGMENT
??_C@_1BMG@LIBMJNOK@?$AAs?$AAt?$AAd?$AA?3?$AA?3?$AA_?$AAT?$AAr?$AAe?$AAe?$AA_?$AAc?$AAo?$AAn?$AAs?$AAt?$AA_?$AAi?$AAt?$AAe?$AAr?$AAa?$AAt?$AAo?$AAr?$AA?$DM?$AAc?$AAl?$AAa?$AAs?$AAs?$AA?5@ DB 's'
	DB	00H, 't', 00H, 'd', 00H, ':', 00H, ':', 00H, '_', 00H, 'T', 00H
	DB	'r', 00H, 'e', 00H, 'e', 00H, '_', 00H, 'c', 00H, 'o', 00H, 'n'
	DB	00H, 's', 00H, 't', 00H, '_', 00H, 'i', 00H, 't', 00H, 'e', 00H
	DB	'r', 00H, 'a', 00H, 't', 00H, 'o', 00H, 'r', 00H, '<', 00H, 'c'
	DB	00H, 'l', 00H, 'a', 00H, 's', 00H, 's', 00H, ' ', 00H, 's', 00H
	DB	't', 00H, 'd', 00H, ':', 00H, ':', 00H, '_', 00H, 'T', 00H, 'r'
	DB	00H, 'e', 00H, 'e', 00H, '_', 00H, 'v', 00H, 'a', 00H, 'l', 00H
	DB	'<', 00H, 's', 00H, 't', 00H, 'r', 00H, 'u', 00H, 'c', 00H, 't'
	DB	00H, ' ', 00H, 's', 00H, 't', 00H, 'd', 00H, ':', 00H, ':', 00H
	DB	'_', 00H, 'T', 00H, 'r', 00H, 'e', 00H, 'e', 00H, '_', 00H, 's'
	DB	00H, 'i', 00H, 'm', 00H, 'p', 00H, 'l', 00H, 'e', 00H, '_', 00H
	DB	't', 00H, 'y', 00H, 'p', 00H, 'e', 00H, 's', 00H, '<', 00H, 's'
	DB	00H, 't', 00H, 'r', 00H, 'u', 00H, 'c', 00H, 't', 00H, ' ', 00H
	DB	's', 00H, 't', 00H, 'd', 00H, ':', 00H, ':', 00H, 'p', 00H, 'a'
	DB	00H, 'i', 00H, 'r', 00H, '<', 00H, 'c', 00H, 'l', 00H, 'a', 00H
	DB	's', 00H, 's', 00H, ' ', 00H, 's', 00H, 't', 00H, 'd', 00H, ':'
	DB	00H, ':', 00H, 'b', 00H, 'a', 00H, 's', 00H, 'i', 00H, 'c', 00H
	DB	'_', 00H, 's', 00H, 't', 00H, 'r', 00H, 'i', 00H, 'n', 00H, 'g'
	DB	00H, '<', 00H, 'c', 00H, 'h', 00H, 'a', 00H, 'r', 00H, ',', 00H
	DB	's', 00H, 't', 00H, 'r', 00H, 'u', 00H, 'c', 00H, 't', 00H, ' '
	DB	00H, 's', 00H, 't', 00H, 'd', 00H, ':', 00H, ':', 00H, 'c', 00H
	DB	'h', 00H, 'a', 00H, 'r', 00H, '_', 00H, 't', 00H, 'r', 00H, 'a'
	DB	00H, 'i', 00H, 't', 00H, 's', 00H, '<', 00H, 'c', 00H, 'h', 00H
	DB	'a', 00H, 'r', 00H, '>', 00H, ',', 00H, 'c', 00H, 'l', 00H, 'a'
	DB	00H, 's', 00H, 's', 00H, ' ', 00H, 's', 00H, 't', 00H, 'd', 00H
	DB	':', 00H, ':', 00H, 'a', 00H, 'l', 00H, 'l', 00H, 'o', 00H, 'c'
	DB	00H, 'a', 00H, 't', 00H, 'o', 00H, 'r', 00H, '<', 00H, 'c', 00H
	DB	'h', 00H, 'a', 00H, 'r', 00H, '>', 00H, ' ', 00H, '>', 00H, ' '
	DB	00H, 'c', 00H, 'o', 00H, 'n', 00H, 's', 00H, 't', 00H, ' ', 00H
	DB	',', 00H, 'c', 00H, 'l', 00H, 'a', 00H, 's', 00H, 's', 00H, ' '
	DB	00H, 'F', 00H, 'u', 00H, 'z', 00H, 'z', 00H, 'y', 00H, 'S', 00H
	DB	'e', 00H, 't', 00H, ' ', 00H, '*', 00H, '>', 00H, ' ', 00H, '>'
	DB	00H, ' ', 00H, '>', 00H, ' ', 00H, '>', 00H, ':', 00H, ':', 00H
	DB	'o', 00H, 'p', 00H, 'e', 00H, 'r', 00H, 'a', 00H, 't', 00H, 'o'
	DB	00H, 'r', 00H, ' ', 00H, '=', 00H, '=', 00H, 00H, 00H ; `string'
CONST	ENDS
;	COMDAT ??_C@_1DO@CFEEPGGJ@?$AAm?$AAa?$AAp?$AA?1?$AAs?$AAe?$AAt?$AA?5?$AAi?$AAt?$AAe?$AAr?$AAa?$AAt?$AAo?$AAr?$AAs?$AA?5?$AAi?$AAn?$AAc?$AAo?$AAm?$AAp?$AAa?$AAt?$AAi?$AAb?$AAl?$AAe?$AA?$AA@
CONST	SEGMENT
??_C@_1DO@CFEEPGGJ@?$AAm?$AAa?$AAp?$AA?1?$AAs?$AAe?$AAt?$AA?5?$AAi?$AAt?$AAe?$AAr?$AAa?$AAt?$AAo?$AAr?$AAs?$AA?5?$AAi?$AAn?$AAc?$AAo?$AAm?$AAp?$AAa?$AAt?$AAi?$AAb?$AAl?$AAe?$AA?$AA@ DB 'm'
	DB	00H, 'a', 00H, 'p', 00H, '/', 00H, 's', 00H, 'e', 00H, 't', 00H
	DB	' ', 00H, 'i', 00H, 't', 00H, 'e', 00H, 'r', 00H, 'a', 00H, 't'
	DB	00H, 'o', 00H, 'r', 00H, 's', 00H, ' ', 00H, 'i', 00H, 'n', 00H
	DB	'c', 00H, 'o', 00H, 'm', 00H, 'p', 00H, 'a', 00H, 't', 00H, 'i'
	DB	00H, 'b', 00H, 'l', 00H, 'e', 00H, 00H, 00H	; `string'
CONST	ENDS
;	COMDAT ??_7?$numpunct@D@std@@6B@
CONST	SEGMENT
??_7?$numpunct@D@std@@6B@ DD FLAT:??_R4?$numpunct@D@std@@6B@ ; std::numpunct<char>::`vftable'
	DD	FLAT:??_E?$numpunct@D@std@@MAEPAXI@Z
	DD	FLAT:?_Incref@facet@locale@std@@UAEXXZ
	DD	FLAT:?_Decref@facet@locale@std@@UAEPAV_Facet_base@3@XZ
	DD	FLAT:?do_decimal_point@?$numpunct@D@std@@MBEDXZ
	DD	FLAT:?do_thousands_sep@?$numpunct@D@std@@MBEDXZ
	DD	FLAT:?do_grouping@?$numpunct@D@std@@MBE?AV?$basic_string@DU?$char_traits@D@std@@V?$allocator@D@2@@2@XZ
	DD	FLAT:?do_falsename@?$numpunct@D@std@@MBE?AV?$basic_string@DU?$char_traits@D@std@@V?$allocator@D@2@@2@XZ
	DD	FLAT:?do_truename@?$numpunct@D@std@@MBE?AV?$basic_string@DU?$char_traits@D@std@@V?$allocator@D@2@@2@XZ
CONST	ENDS
;	COMDAT ??_C@_02EAOCLKAK@ld?$AA@
CONST	SEGMENT
??_C@_02EAOCLKAK@ld?$AA@ DB 'ld', 00H			; `string'
CONST	ENDS
;	COMDAT ??_C@_02BDDLJJBK@lu?$AA@
CONST	SEGMENT
??_C@_02BDDLJJBK@lu?$AA@ DB 'lu', 00H			; `string'
CONST	ENDS
;	COMDAT ??_C@_02HIKPPMOK@Ld?$AA@
CONST	SEGMENT
??_C@_02HIKPPMOK@Ld?$AA@ DB 'Ld', 00H			; `string'
CONST	ENDS
;	COMDAT ??_C@_02CLHGNPPK@Lu?$AA@
CONST	SEGMENT
??_C@_02CLHGNPPK@Lu?$AA@ DB 'Lu', 00H			; `string'
CONST	ENDS
;	COMDAT ??_C@_02BBAHNLBA@?$CFp?$AA@
CONST	SEGMENT
??_C@_02BBAHNLBA@?$CFp?$AA@ DB '%p', 00H		; `string'
CONST	ENDS
;	COMDAT ??_7?$num_put@DV?$ostreambuf_iterator@DU?$char_traits@D@std@@@std@@@std@@6B@
CONST	SEGMENT
??_7?$num_put@DV?$ostreambuf_iterator@DU?$char_traits@D@std@@@std@@@std@@6B@ DD FLAT:??_R4?$num_put@DV?$ostreambuf_iterator@DU?$char_traits@D@std@@@std@@@std@@6B@ ; std::num_put<char,std::ostreambuf_iterator<char,std::char_traits<char> > >::`vftable'
	DD	FLAT:??_E?$num_put@DV?$ostreambuf_iterator@DU?$char_traits@D@std@@@std@@@std@@MAEPAXI@Z
	DD	FLAT:?_Incref@facet@locale@std@@UAEXXZ
	DD	FLAT:?_Decref@facet@locale@std@@UAEPAV_Facet_base@3@XZ
	DD	FLAT:?do_put@?$num_put@DV?$ostreambuf_iterator@DU?$char_traits@D@std@@@std@@@std@@MBE?AV?$ostreambuf_iterator@DU?$char_traits@D@std@@@2@V32@AAVios_base@2@DPBX@Z
	DD	FLAT:?do_put@?$num_put@DV?$ostreambuf_iterator@DU?$char_traits@D@std@@@std@@@std@@MBE?AV?$ostreambuf_iterator@DU?$char_traits@D@std@@@2@V32@AAVios_base@2@DO@Z
	DD	FLAT:?do_put@?$num_put@DV?$ostreambuf_iterator@DU?$char_traits@D@std@@@std@@@std@@MBE?AV?$ostreambuf_iterator@DU?$char_traits@D@std@@@2@V32@AAVios_base@2@DN@Z
	DD	FLAT:?do_put@?$num_put@DV?$ostreambuf_iterator@DU?$char_traits@D@std@@@std@@@std@@MBE?AV?$ostreambuf_iterator@DU?$char_traits@D@std@@@2@V32@AAVios_base@2@D_K@Z
	DD	FLAT:?do_put@?$num_put@DV?$ostreambuf_iterator@DU?$char_traits@D@std@@@std@@@std@@MBE?AV?$ostreambuf_iterator@DU?$char_traits@D@std@@@2@V32@AAVios_base@2@D_J@Z
	DD	FLAT:?do_put@?$num_put@DV?$ostreambuf_iterator@DU?$char_traits@D@std@@@std@@@std@@MBE?AV?$ostreambuf_iterator@DU?$char_traits@D@std@@@2@V32@AAVios_base@2@DK@Z
	DD	FLAT:?do_put@?$num_put@DV?$ostreambuf_iterator@DU?$char_traits@D@std@@@std@@@std@@MBE?AV?$ostreambuf_iterator@DU?$char_traits@D@std@@@2@V32@AAVios_base@2@DJ@Z
	DD	FLAT:?do_put@?$num_put@DV?$ostreambuf_iterator@DU?$char_traits@D@std@@@std@@@std@@MBE?AV?$ostreambuf_iterator@DU?$char_traits@D@std@@@2@V32@AAVios_base@2@D_N@Z
CONST	ENDS
;	COMDAT ??_C@_1EA@OADAPGGK@?$AA?$CC?$AAs?$AAt?$AAr?$AAi?$AAn?$AAg?$AA?5?$AAs?$AAu?$AAb?$AAs?$AAc?$AAr?$AAi?$AAp?$AAt?$AA?5?$AAo?$AAu?$AAt?$AA?5?$AAo?$AAf?$AA?5?$AAr?$AAa?$AAn?$AAg?$AAe?$AA?$CC?$AA?$AA@
CONST	SEGMENT
??_C@_1EA@OADAPGGK@?$AA?$CC?$AAs?$AAt?$AAr?$AAi?$AAn?$AAg?$AA?5?$AAs?$AAu?$AAb?$AAs?$AAc?$AAr?$AAi?$AAp?$AAt?$AA?5?$AAo?$AAu?$AAt?$AA?5?$AAo?$AAf?$AA?5?$AAr?$AAa?$AAn?$AAg?$AAe?$AA?$CC?$AA?$AA@ DB '"'
	DB	00H, 's', 00H, 't', 00H, 'r', 00H, 'i', 00H, 'n', 00H, 'g', 00H
	DB	' ', 00H, 's', 00H, 'u', 00H, 'b', 00H, 's', 00H, 'c', 00H, 'r'
	DB	00H, 'i', 00H, 'p', 00H, 't', 00H, ' ', 00H, 'o', 00H, 'u', 00H
	DB	't', 00H, ' ', 00H, 'o', 00H, 'f', 00H, ' ', 00H, 'r', 00H, 'a'
	DB	00H, 'n', 00H, 'g', 00H, 'e', 00H, '"', 00H, 00H, 00H ; `string'
CONST	ENDS
;	COMDAT ??_C@_1LO@NPPEKPAI@?$AAs?$AAt?$AAd?$AA?3?$AA?3?$AAb?$AAa?$AAs?$AAi?$AAc?$AA_?$AAs?$AAt?$AAr?$AAi?$AAn?$AAg?$AA?$DM?$AAc?$AAh?$AAa?$AAr?$AA?0?$AAs?$AAt?$AAr?$AAu?$AAc?$AAt?$AA?5?$AAs?$AAt@
CONST	SEGMENT
??_C@_1LO@NPPEKPAI@?$AAs?$AAt?$AAd?$AA?3?$AA?3?$AAb?$AAa?$AAs?$AAi?$AAc?$AA_?$AAs?$AAt?$AAr?$AAi?$AAn?$AAg?$AA?$DM?$AAc?$AAh?$AAa?$AAr?$AA?0?$AAs?$AAt?$AAr?$AAu?$AAc?$AAt?$AA?5?$AAs?$AAt@ DB 's'
	DB	00H, 't', 00H, 'd', 00H, ':', 00H, ':', 00H, 'b', 00H, 'a', 00H
	DB	's', 00H, 'i', 00H, 'c', 00H, '_', 00H, 's', 00H, 't', 00H, 'r'
	DB	00H, 'i', 00H, 'n', 00H, 'g', 00H, '<', 00H, 'c', 00H, 'h', 00H
	DB	'a', 00H, 'r', 00H, ',', 00H, 's', 00H, 't', 00H, 'r', 00H, 'u'
	DB	00H, 'c', 00H, 't', 00H, ' ', 00H, 's', 00H, 't', 00H, 'd', 00H
	DB	':', 00H, ':', 00H, 'c', 00H, 'h', 00H, 'a', 00H, 'r', 00H, '_'
	DB	00H, 't', 00H, 'r', 00H, 'a', 00H, 'i', 00H, 't', 00H, 's', 00H
	DB	'<', 00H, 'c', 00H, 'h', 00H, 'a', 00H, 'r', 00H, '>', 00H, ','
	DB	00H, 'c', 00H, 'l', 00H, 'a', 00H, 's', 00H, 's', 00H, ' ', 00H
	DB	's', 00H, 't', 00H, 'd', 00H, ':', 00H, ':', 00H, 'a', 00H, 'l'
	DB	00H, 'l', 00H, 'o', 00H, 'c', 00H, 'a', 00H, 't', 00H, 'o', 00H
	DB	'r', 00H, '<', 00H, 'c', 00H, 'h', 00H, 'a', 00H, 'r', 00H, '>'
	DB	00H, ' ', 00H, '>', 00H, ':', 00H, ':', 00H, 'o', 00H, 'p', 00H
	DB	'e', 00H, 'r', 00H, 'a', 00H, 't', 00H, 'o', 00H, 'r', 00H, ' '
	DB	00H, '[', 00H, ']', 00H, 00H, 00H		; `string'
CONST	ENDS
;	COMDAT ??_C@_1DM@GMPLOCPK@?$AAs?$AAt?$AAr?$AAi?$AAn?$AAg?$AA?5?$AAs?$AAu?$AAb?$AAs?$AAc?$AAr?$AAi?$AAp?$AAt?$AA?5?$AAo?$AAu?$AAt?$AA?5?$AAo?$AAf?$AA?5?$AAr?$AAa?$AAn?$AAg?$AAe?$AA?$AA@
CONST	SEGMENT
??_C@_1DM@GMPLOCPK@?$AAs?$AAt?$AAr?$AAi?$AAn?$AAg?$AA?5?$AAs?$AAu?$AAb?$AAs?$AAc?$AAr?$AAi?$AAp?$AAt?$AA?5?$AAo?$AAu?$AAt?$AA?5?$AAo?$AAf?$AA?5?$AAr?$AAa?$AAn?$AAg?$AAe?$AA?$AA@ DB 's'
	DB	00H, 't', 00H, 'r', 00H, 'i', 00H, 'n', 00H, 'g', 00H, ' ', 00H
	DB	's', 00H, 'u', 00H, 'b', 00H, 's', 00H, 'c', 00H, 'r', 00H, 'i'
	DB	00H, 'p', 00H, 't', 00H, ' ', 00H, 'o', 00H, 'u', 00H, 't', 00H
	DB	' ', 00H, 'o', 00H, 'f', 00H, ' ', 00H, 'r', 00H, 'a', 00H, 'n'
	DB	00H, 'g', 00H, 'e', 00H, 00H, 00H		; `string'
CONST	ENDS
;	COMDAT ??_C@_1NA@PGMFAMME@?$AAd?$AA?3?$AA?2?$AAp?$AAr?$AAo?$AAg?$AAr?$AAa?$AAm?$AA?5?$AAf?$AAi?$AAl?$AAe?$AAs?$AA?5?$AA?$CI?$AAx?$AA8?$AA6?$AA?$CJ?$AA?2?$AAm?$AAi?$AAc?$AAr?$AAo?$AAs?$AAo?$AAf?$AAt@
CONST	SEGMENT
??_C@_1NA@PGMFAMME@?$AAd?$AA?3?$AA?2?$AAp?$AAr?$AAo?$AAg?$AAr?$AAa?$AAm?$AA?5?$AAf?$AAi?$AAl?$AAe?$AAs?$AA?5?$AA?$CI?$AAx?$AA8?$AA6?$AA?$CJ?$AA?2?$AAm?$AAi?$AAc?$AAr?$AAo?$AAs?$AAo?$AAf?$AAt@ DB 'd'
	DB	00H, ':', 00H, '\', 00H, 'p', 00H, 'r', 00H, 'o', 00H, 'g', 00H
	DB	'r', 00H, 'a', 00H, 'm', 00H, ' ', 00H, 'f', 00H, 'i', 00H, 'l'
	DB	00H, 'e', 00H, 's', 00H, ' ', 00H, '(', 00H, 'x', 00H, '8', 00H
	DB	'6', 00H, ')', 00H, '\', 00H, 'm', 00H, 'i', 00H, 'c', 00H, 'r'
	DB	00H, 'o', 00H, 's', 00H, 'o', 00H, 'f', 00H, 't', 00H, ' ', 00H
	DB	'v', 00H, 'i', 00H, 's', 00H, 'u', 00H, 'a', 00H, 'l', 00H, ' '
	DB	00H, 's', 00H, 't', 00H, 'u', 00H, 'd', 00H, 'i', 00H, 'o', 00H
	DB	'\', 00H, '2', 00H, '0', 00H, '1', 00H, '7', 00H, '\', 00H, 'c'
	DB	00H, 'o', 00H, 'm', 00H, 'm', 00H, 'u', 00H, 'n', 00H, 'i', 00H
	DB	't', 00H, 'y', 00H, '\', 00H, 'v', 00H, 'c', 00H, '\', 00H, 't'
	DB	00H, 'o', 00H, 'o', 00H, 'l', 00H, 's', 00H, '\', 00H, 'm', 00H
	DB	's', 00H, 'v', 00H, 'c', 00H, '\', 00H, '1', 00H, '4', 00H, '.'
	DB	00H, '1', 00H, '4', 00H, '.', 00H, '2', 00H, '6', 00H, '4', 00H
	DB	'2', 00H, '8', 00H, '\', 00H, 'i', 00H, 'n', 00H, 'c', 00H, 'l'
	DB	00H, 'u', 00H, 'd', 00H, 'e', 00H, '\', 00H, 'x', 00H, 's', 00H
	DB	't', 00H, 'r', 00H, 'i', 00H, 'n', 00H, 'g', 00H, 00H, 00H ; `string'
CONST	ENDS
;	COMDAT ??_C@_1EK@BCPDGOMC@?$AA?$CC?$AAm?$AAa?$AAp?$AA?1?$AAs?$AAe?$AAt?$AA?5?$AAi?$AAt?$AAe?$AAr?$AAa?$AAt?$AAo?$AAr?$AA?5?$AAn?$AAo?$AAt?$AA?5?$AAi?$AAn?$AAc?$AAr?$AAe?$AAm?$AAe?$AAn?$AAt?$AAa@
CONST	SEGMENT
??_C@_1EK@BCPDGOMC@?$AA?$CC?$AAm?$AAa?$AAp?$AA?1?$AAs?$AAe?$AAt?$AA?5?$AAi?$AAt?$AAe?$AAr?$AAa?$AAt?$AAo?$AAr?$AA?5?$AAn?$AAo?$AAt?$AA?5?$AAi?$AAn?$AAc?$AAr?$AAe?$AAm?$AAe?$AAn?$AAt?$AAa@ DB '"'
	DB	00H, 'm', 00H, 'a', 00H, 'p', 00H, '/', 00H, 's', 00H, 'e', 00H
	DB	't', 00H, ' ', 00H, 'i', 00H, 't', 00H, 'e', 00H, 'r', 00H, 'a'
	DB	00H, 't', 00H, 'o', 00H, 'r', 00H, ' ', 00H, 'n', 00H, 'o', 00H
	DB	't', 00H, ' ', 00H, 'i', 00H, 'n', 00H, 'c', 00H, 'r', 00H, 'e'
	DB	00H, 'm', 00H, 'e', 00H, 'n', 00H, 't', 00H, 'a', 00H, 'b', 00H
	DB	'l', 00H, 'e', 00H, '"', 00H, 00H, 00H	; `string'
CONST	ENDS
;	COMDAT ??_C@_1BMG@BIOBHECP@?$AAs?$AAt?$AAd?$AA?3?$AA?3?$AA_?$AAT?$AAr?$AAe?$AAe?$AA_?$AAc?$AAo?$AAn?$AAs?$AAt?$AA_?$AAi?$AAt?$AAe?$AAr?$AAa?$AAt?$AAo?$AAr?$AA?$DM?$AAc?$AAl?$AAa?$AAs?$AAs?$AA?5@
CONST	SEGMENT
??_C@_1BMG@BIOBHECP@?$AAs?$AAt?$AAd?$AA?3?$AA?3?$AA_?$AAT?$AAr?$AAe?$AAe?$AA_?$AAc?$AAo?$AAn?$AAs?$AAt?$AA_?$AAi?$AAt?$AAe?$AAr?$AAa?$AAt?$AAo?$AAr?$AA?$DM?$AAc?$AAl?$AAa?$AAs?$AAs?$AA?5@ DB 's'
	DB	00H, 't', 00H, 'd', 00H, ':', 00H, ':', 00H, '_', 00H, 'T', 00H
	DB	'r', 00H, 'e', 00H, 'e', 00H, '_', 00H, 'c', 00H, 'o', 00H, 'n'
	DB	00H, 's', 00H, 't', 00H, '_', 00H, 'i', 00H, 't', 00H, 'e', 00H
	DB	'r', 00H, 'a', 00H, 't', 00H, 'o', 00H, 'r', 00H, '<', 00H, 'c'
	DB	00H, 'l', 00H, 'a', 00H, 's', 00H, 's', 00H, ' ', 00H, 's', 00H
	DB	't', 00H, 'd', 00H, ':', 00H, ':', 00H, '_', 00H, 'T', 00H, 'r'
	DB	00H, 'e', 00H, 'e', 00H, '_', 00H, 'v', 00H, 'a', 00H, 'l', 00H
	DB	'<', 00H, 's', 00H, 't', 00H, 'r', 00H, 'u', 00H, 'c', 00H, 't'
	DB	00H, ' ', 00H, 's', 00H, 't', 00H, 'd', 00H, ':', 00H, ':', 00H
	DB	'_', 00H, 'T', 00H, 'r', 00H, 'e', 00H, 'e', 00H, '_', 00H, 's'
	DB	00H, 'i', 00H, 'm', 00H, 'p', 00H, 'l', 00H, 'e', 00H, '_', 00H
	DB	't', 00H, 'y', 00H, 'p', 00H, 'e', 00H, 's', 00H, '<', 00H, 's'
	DB	00H, 't', 00H, 'r', 00H, 'u', 00H, 'c', 00H, 't', 00H, ' ', 00H
	DB	's', 00H, 't', 00H, 'd', 00H, ':', 00H, ':', 00H, 'p', 00H, 'a'
	DB	00H, 'i', 00H, 'r', 00H, '<', 00H, 'c', 00H, 'l', 00H, 'a', 00H
	DB	's', 00H, 's', 00H, ' ', 00H, 's', 00H, 't', 00H, 'd', 00H, ':'
	DB	00H, ':', 00H, 'b', 00H, 'a', 00H, 's', 00H, 'i', 00H, 'c', 00H
	DB	'_', 00H, 's', 00H, 't', 00H, 'r', 00H, 'i', 00H, 'n', 00H, 'g'
	DB	00H, '<', 00H, 'c', 00H, 'h', 00H, 'a', 00H, 'r', 00H, ',', 00H
	DB	's', 00H, 't', 00H, 'r', 00H, 'u', 00H, 'c', 00H, 't', 00H, ' '
	DB	00H, 's', 00H, 't', 00H, 'd', 00H, ':', 00H, ':', 00H, 'c', 00H
	DB	'h', 00H, 'a', 00H, 'r', 00H, '_', 00H, 't', 00H, 'r', 00H, 'a'
	DB	00H, 'i', 00H, 't', 00H, 's', 00H, '<', 00H, 'c', 00H, 'h', 00H
	DB	'a', 00H, 'r', 00H, '>', 00H, ',', 00H, 'c', 00H, 'l', 00H, 'a'
	DB	00H, 's', 00H, 's', 00H, ' ', 00H, 's', 00H, 't', 00H, 'd', 00H
	DB	':', 00H, ':', 00H, 'a', 00H, 'l', 00H, 'l', 00H, 'o', 00H, 'c'
	DB	00H, 'a', 00H, 't', 00H, 'o', 00H, 'r', 00H, '<', 00H, 'c', 00H
	DB	'h', 00H, 'a', 00H, 'r', 00H, '>', 00H, ' ', 00H, '>', 00H, ' '
	DB	00H, 'c', 00H, 'o', 00H, 'n', 00H, 's', 00H, 't', 00H, ' ', 00H
	DB	',', 00H, 'c', 00H, 'l', 00H, 'a', 00H, 's', 00H, 's', 00H, ' '
	DB	00H, 'F', 00H, 'u', 00H, 'z', 00H, 'z', 00H, 'y', 00H, 'S', 00H
	DB	'e', 00H, 't', 00H, ' ', 00H, '*', 00H, '>', 00H, ' ', 00H, '>'
	DB	00H, ' ', 00H, '>', 00H, ' ', 00H, '>', 00H, ':', 00H, ':', 00H
	DB	'o', 00H, 'p', 00H, 'e', 00H, 'r', 00H, 'a', 00H, 't', 00H, 'o'
	DB	00H, 'r', 00H, ' ', 00H, '+', 00H, '+', 00H, 00H, 00H ; `string'
CONST	ENDS
;	COMDAT ??_C@_1EG@EHJFMBHJ@?$AAm?$AAa?$AAp?$AA?1?$AAs?$AAe?$AAt?$AA?5?$AAi?$AAt?$AAe?$AAr?$AAa?$AAt?$AAo?$AAr?$AA?5?$AAn?$AAo?$AAt?$AA?5?$AAi?$AAn?$AAc?$AAr?$AAe?$AAm?$AAe?$AAn?$AAt?$AAa?$AAb@
CONST	SEGMENT
??_C@_1EG@EHJFMBHJ@?$AAm?$AAa?$AAp?$AA?1?$AAs?$AAe?$AAt?$AA?5?$AAi?$AAt?$AAe?$AAr?$AAa?$AAt?$AAo?$AAr?$AA?5?$AAn?$AAo?$AAt?$AA?5?$AAi?$AAn?$AAc?$AAr?$AAe?$AAm?$AAe?$AAn?$AAt?$AAa?$AAb@ DB 'm'
	DB	00H, 'a', 00H, 'p', 00H, '/', 00H, 's', 00H, 'e', 00H, 't', 00H
	DB	' ', 00H, 'i', 00H, 't', 00H, 'e', 00H, 'r', 00H, 'a', 00H, 't'
	DB	00H, 'o', 00H, 'r', 00H, ' ', 00H, 'n', 00H, 'o', 00H, 't', 00H
	DB	' ', 00H, 'i', 00H, 'n', 00H, 'c', 00H, 'r', 00H, 'e', 00H, 'm'
	DB	00H, 'e', 00H, 'n', 00H, 't', 00H, 'a', 00H, 'b', 00H, 'l', 00H
	DB	'e', 00H, 00H, 00H				; `string'
CONST	ENDS
;	COMDAT ??_C@_1MM@MDHNIKFI@?$AAd?$AA?3?$AA?2?$AAp?$AAr?$AAo?$AAg?$AAr?$AAa?$AAm?$AA?5?$AAf?$AAi?$AAl?$AAe?$AAs?$AA?5?$AA?$CI?$AAx?$AA8?$AA6?$AA?$CJ?$AA?2?$AAm?$AAi?$AAc?$AAr?$AAo?$AAs?$AAo?$AAf?$AAt@
CONST	SEGMENT
??_C@_1MM@MDHNIKFI@?$AAd?$AA?3?$AA?2?$AAp?$AAr?$AAo?$AAg?$AAr?$AAa?$AAm?$AA?5?$AAf?$AAi?$AAl?$AAe?$AAs?$AA?5?$AA?$CI?$AAx?$AA8?$AA6?$AA?$CJ?$AA?2?$AAm?$AAi?$AAc?$AAr?$AAo?$AAs?$AAo?$AAf?$AAt@ DB 'd'
	DB	00H, ':', 00H, '\', 00H, 'p', 00H, 'r', 00H, 'o', 00H, 'g', 00H
	DB	'r', 00H, 'a', 00H, 'm', 00H, ' ', 00H, 'f', 00H, 'i', 00H, 'l'
	DB	00H, 'e', 00H, 's', 00H, ' ', 00H, '(', 00H, 'x', 00H, '8', 00H
	DB	'6', 00H, ')', 00H, '\', 00H, 'm', 00H, 'i', 00H, 'c', 00H, 'r'
	DB	00H, 'o', 00H, 's', 00H, 'o', 00H, 'f', 00H, 't', 00H, ' ', 00H
	DB	'v', 00H, 'i', 00H, 's', 00H, 'u', 00H, 'a', 00H, 'l', 00H, ' '
	DB	00H, 's', 00H, 't', 00H, 'u', 00H, 'd', 00H, 'i', 00H, 'o', 00H
	DB	'\', 00H, '2', 00H, '0', 00H, '1', 00H, '7', 00H, '\', 00H, 'c'
	DB	00H, 'o', 00H, 'm', 00H, 'm', 00H, 'u', 00H, 'n', 00H, 'i', 00H
	DB	't', 00H, 'y', 00H, '\', 00H, 'v', 00H, 'c', 00H, '\', 00H, 't'
	DB	00H, 'o', 00H, 'o', 00H, 'l', 00H, 's', 00H, '\', 00H, 'm', 00H
	DB	's', 00H, 'v', 00H, 'c', 00H, '\', 00H, '1', 00H, '4', 00H, '.'
	DB	00H, '1', 00H, '4', 00H, '.', 00H, '2', 00H, '6', 00H, '4', 00H
	DB	'2', 00H, '8', 00H, '\', 00H, 'i', 00H, 'n', 00H, 'c', 00H, 'l'
	DB	00H, 'u', 00H, 'd', 00H, 'e', 00H, '\', 00H, 'x', 00H, 't', 00H
	DB	'r', 00H, 'e', 00H, 'e', 00H, 00H, 00H	; `string'
CONST	ENDS
;	COMDAT ??_7FzSet@@6B@
CONST	SEGMENT
??_7FzSet@@6B@ DD FLAT:??_R4FzSet@@6B@			; FzSet::`vftable'
	DD	FLAT:??_EFzSet@@UAEPAXI@Z
	DD	FLAT:?Clone@FzSet@@UBEPAVFuzzyTerm@@XZ
	DD	FLAT:?GetDOM@FzSet@@UBENXZ
	DD	FLAT:?ClearDOM@FzSet@@UAEXXZ
	DD	FLAT:?ORwithDOM@FzSet@@UAEXN@Z
CONST	ENDS
;	COMDAT ??_7FuzzySet_Singleton@@6B@
CONST	SEGMENT
??_7FuzzySet_Singleton@@6B@ DD FLAT:??_R4FuzzySet_Singleton@@6B@ ; FuzzySet_Singleton::`vftable'
	DD	FLAT:?CalculateDOM@FuzzySet_Singleton@@UBENN@Z
CONST	ENDS
;	COMDAT ??_7FuzzySet_RightShoulder@@6B@
CONST	SEGMENT
??_7FuzzySet_RightShoulder@@6B@ DD FLAT:??_R4FuzzySet_RightShoulder@@6B@ ; FuzzySet_RightShoulder::`vftable'
	DD	FLAT:?CalculateDOM@FuzzySet_RightShoulder@@UBENN@Z
CONST	ENDS
;	COMDAT ??_7FuzzySet_LeftShoulder@@6B@
CONST	SEGMENT
??_7FuzzySet_LeftShoulder@@6B@ DD FLAT:??_R4FuzzySet_LeftShoulder@@6B@ ; FuzzySet_LeftShoulder::`vftable'
	DD	FLAT:?CalculateDOM@FuzzySet_LeftShoulder@@UBENN@Z
CONST	ENDS
;	COMDAT ??_7FuzzySet_Triangle@@6B@
CONST	SEGMENT
??_7FuzzySet_Triangle@@6B@ DD FLAT:??_R4FuzzySet_Triangle@@6B@ ; FuzzySet_Triangle::`vftable'
	DD	FLAT:?CalculateDOM@FuzzySet_Triangle@@UBENN@Z
CONST	ENDS
;	COMDAT ??_C@_1HO@GLDMFMBC@?$AA?$CI?$AAv?$AAa?$AAl?$AA?5?$AA?$DM?$AA?$DN?$AA1?$AA?$CJ?$AA?5?$AA?$CG?$AA?$CG?$AA?5?$AA?$CI?$AAv?$AAa?$AAl?$AA?5?$AA?$DO?$AA?$DN?$AA?5?$AA0?$AA?$CJ?$AA?5?$AA?$CG?$AA?$CG?$AA?5?$AA?$CC?$AA?$DM?$AAF?$AAu?$AAz@
CONST	SEGMENT
??_C@_1HO@GLDMFMBC@?$AA?$CI?$AAv?$AAa?$AAl?$AA?5?$AA?$DM?$AA?$DN?$AA1?$AA?$CJ?$AA?5?$AA?$CG?$AA?$CG?$AA?5?$AA?$CI?$AAv?$AAa?$AAl?$AA?5?$AA?$DO?$AA?$DN?$AA?5?$AA0?$AA?$CJ?$AA?5?$AA?$CG?$AA?$CG?$AA?5?$AA?$CC?$AA?$DM?$AAF?$AAu?$AAz@ DB '('
	DB	00H, 'v', 00H, 'a', 00H, 'l', 00H, ' ', 00H, '<', 00H, '=', 00H
	DB	'1', 00H, ')', 00H, ' ', 00H, '&', 00H, '&', 00H, ' ', 00H, '('
	DB	00H, 'v', 00H, 'a', 00H, 'l', 00H, ' ', 00H, '>', 00H, '=', 00H
	DB	' ', 00H, '0', 00H, ')', 00H, ' ', 00H, '&', 00H, '&', 00H, ' '
	DB	00H, '"', 00H, '<', 00H, 'F', 00H, 'u', 00H, 'z', 00H, 'z', 00H
	DB	'y', 00H, 'S', 00H, 'e', 00H, 't', 00H, ':', 00H, ':', 00H, 'S'
	DB	00H, 'e', 00H, 't', 00H, 'D', 00H, 'O', 00H, 'M', 00H, '>', 00H
	DB	':', 00H, ' ', 00H, 'i', 00H, 'n', 00H, 'v', 00H, 'a', 00H, 'l'
	DB	00H, 'i', 00H, 'd', 00H, ' ', 00H, 'v', 00H, 'a', 00H, 'l', 00H
	DB	'u', 00H, 'e', 00H, '"', 00H, 00H, 00H	; `string'
CONST	ENDS
;	COMDAT ??_C@_1IO@FJPBELPO@?$AAd?$AA?3?$AA?2?$AAi?$AAa?$AA?5?$AAj?$AAe?$AAu?$AAx?$AA?5?$AAv?$AAi?$AAd?$AA?i?$AAo?$AA?2?$AAp?$AAr?$AAo?$AAj?$AAe?$AAt?$AAs?$AA?2?$AAu?$AAq?$AAa?$AAc?$AA_?$AAi?$AAa@
CONST	SEGMENT
??_C@_1IO@FJPBELPO@?$AAd?$AA?3?$AA?2?$AAi?$AAa?$AA?5?$AAj?$AAe?$AAu?$AAx?$AA?5?$AAv?$AAi?$AAd?$AA?i?$AAo?$AA?2?$AAp?$AAr?$AAo?$AAj?$AAe?$AAt?$AAs?$AA?2?$AAu?$AAq?$AAa?$AAc?$AA_?$AAi?$AAa@ DB 'd'
	DB	00H, ':', 00H, '\', 00H, 'i', 00H, 'a', 00H, ' ', 00H, 'j', 00H
	DB	'e', 00H, 'u', 00H, 'x', 00H, ' ', 00H, 'v', 00H, 'i', 00H, 'd'
	DB	00H, 0e9H, 00H, 'o', 00H, '\', 00H, 'p', 00H, 'r', 00H, 'o', 00H
	DB	'j', 00H, 'e', 00H, 't', 00H, 's', 00H, '\', 00H, 'u', 00H, 'q'
	DB	00H, 'a', 00H, 'c', 00H, '_', 00H, 'i', 00H, 'a', 00H, '_', 00H
	DB	'j', 00H, 'v', 00H, '_', 00H, 'm', 00H, 'i', 00H, 'n', 00H, 'i'
	DB	00H, 'p', 00H, 'r', 00H, 'o', 00H, 'j', 00H, 'e', 00H, 't', 00H
	DB	'\', 00H, 'c', 00H, 'o', 00H, 'm', 00H, 'm', 00H, 'o', 00H, 'n'
	DB	00H, '\', 00H, 'f', 00H, 'u', 00H, 'z', 00H, 'z', 00H, 'y', 00H
	DB	'\', 00H, 'f', 00H, 'u', 00H, 'z', 00H, 'z', 00H, 'y', 00H, 's'
	DB	00H, 'e', 00H, 't', 00H, '.', 00H, 'h', 00H, 00H, 00H ; `string'
CONST	ENDS
;	COMDAT ??_C@_0CC@DAIEIJMF@?$DMFuzzySet?3?3SetDOM?$DO?3?5invalid?5valu@
CONST	SEGMENT
??_C@_0CC@DAIEIJMF@?$DMFuzzySet?3?3SetDOM?$DO?3?5invalid?5valu@ DB '<Fuzz'
	DB	'ySet::SetDOM>: invalid value', 00H		; `string'
CONST	ENDS
;	COMDAT ??_7FuzzySet@@6B@
CONST	SEGMENT
??_7FuzzySet@@6B@ DD FLAT:??_R4FuzzySet@@6B@		; FuzzySet::`vftable'
	DD	FLAT:__purecall
CONST	ENDS
;	COMDAT ??_7FuzzyTerm@@6B@
CONST	SEGMENT
??_7FuzzyTerm@@6B@ DD FLAT:??_R4FuzzyTerm@@6B@		; FuzzyTerm::`vftable'
	DD	FLAT:??_EFuzzyTerm@@UAEPAXI@Z
	DD	FLAT:__purecall
	DD	FLAT:__purecall
	DD	FLAT:__purecall
	DD	FLAT:__purecall
CONST	ENDS
;	COMDAT ??_C@_0BF@OOHOMBOF@ios_base?3?3eofbit?5set?$AA@
CONST	SEGMENT
??_C@_0BF@OOHOMBOF@ios_base?3?3eofbit?5set?$AA@ DB 'ios_base::eofbit set', 00H ; `string'
CONST	ENDS
;	COMDAT ??_C@_0BG@FMKFHCIL@ios_base?3?3failbit?5set?$AA@
CONST	SEGMENT
??_C@_0BG@FMKFHCIL@ios_base?3?3failbit?5set?$AA@ DB 'ios_base::failbit se'
	DB	't', 00H					; `string'
CONST	ENDS
;	COMDAT ??_C@_0BF@PHHKMMFD@ios_base?3?3badbit?5set?$AA@
CONST	SEGMENT
??_C@_0BF@PHHKMMFD@ios_base?3?3badbit?5set?$AA@ DB 'ios_base::badbit set', 00H ; `string'
CONST	ENDS
;	COMDAT __CT??_R0?AV_System_error@std@@@8??0_System_error@std@@QAE@ABV01@@Z20
xdata$x	SEGMENT
__CT??_R0?AV_System_error@std@@@8??0_System_error@std@@QAE@ABV01@@Z20 DD 00H
